
usb_kb.elf:     file format elf32-littlenios2
usb_kb.elf
architecture: nios2:r1, flags 0x00000112:
EXEC_P, HAS_SYMS, D_PAGED
start address 0x080001bc

Program Header:
    LOAD off    0x00001000 vaddr 0x08000000 paddr 0x08000000 align 2**12
         filesz 0x00000020 memsz 0x00000020 flags r-x
    LOAD off    0x00001020 vaddr 0x08000020 paddr 0x08000020 align 2**12
         filesz 0x000208d4 memsz 0x000208d4 flags r-x
    LOAD off    0x000218f4 vaddr 0x080208f4 paddr 0x08022420 align 2**12
         filesz 0x00001b2c memsz 0x00001b2c flags rw-
    LOAD off    0x00023f4c vaddr 0x08023f4c paddr 0x08023f4c align 2**12
         filesz 0x00000000 memsz 0x00004ba0 flags rw-

Sections:
Idx Name          Size      VMA       LMA       File off  Algn
  0 .entry        00000020  08000000  08000000  00001000  2**5
                  CONTENTS, ALLOC, LOAD, READONLY, CODE
  1 .exceptions   0000019c  08000020  08000020  00001020  2**2
                  CONTENTS, ALLOC, LOAD, READONLY, CODE
  2 .text         0001f420  080001bc  080001bc  000011bc  2**2
                  CONTENTS, ALLOC, LOAD, READONLY, CODE
  3 .rodata       00001318  0801f5dc  0801f5dc  000205dc  2**2
                  CONTENTS, ALLOC, LOAD, READONLY, DATA
  4 .rwdata       00001b2c  080208f4  08022420  000218f4  2**2
                  CONTENTS, ALLOC, LOAD, DATA, SMALL_DATA
  5 .bss          00004ba0  08023f4c  08023f4c  00023f4c  2**2
                  ALLOC, SMALL_DATA
  6 .onchip_memory2_0 00000000  00000000  00000000  00023420  2**0
                  CONTENTS
  7 .sdram        00000000  08028aec  08028aec  00023420  2**0
                  CONTENTS
  8 .comment      00000023  00000000  00000000  00023420  2**0
                  CONTENTS, READONLY
  9 .debug_aranges 000012b8  00000000  00000000  00023448  2**3
                  CONTENTS, READONLY, DEBUGGING
 10 .debug_info   0002f30b  00000000  00000000  00024700  2**0
                  CONTENTS, READONLY, DEBUGGING
 11 .debug_abbrev 0000c732  00000000  00000000  00053a0b  2**0
                  CONTENTS, READONLY, DEBUGGING
 12 .debug_line   00010e07  00000000  00000000  0006013d  2**0
                  CONTENTS, READONLY, DEBUGGING
 13 .debug_frame  00002ee0  00000000  00000000  00070f44  2**2
                  CONTENTS, READONLY, DEBUGGING
 14 .debug_str    000044bc  00000000  00000000  00073e24  2**0
                  CONTENTS, READONLY, DEBUGGING
 15 .debug_loc    00024b14  00000000  00000000  000782e0  2**0
                  CONTENTS, READONLY, DEBUGGING
 16 .debug_alt_sim_info 00000040  00000000  00000000  0009cdf4  2**2
                  CONTENTS, READONLY, DEBUGGING
 17 .debug_ranges 000018a0  00000000  00000000  0009ce38  2**3
                  CONTENTS, READONLY, DEBUGGING
 18 .thread_model 00000003  00000000  00000000  000a2897  2**0
                  CONTENTS, READONLY
 19 .cpu          0000000c  00000000  00000000  000a289a  2**0
                  CONTENTS, READONLY
 20 .qsys         00000001  00000000  00000000  000a28a6  2**0
                  CONTENTS, READONLY
 21 .simulation_enabled 00000001  00000000  00000000  000a28a7  2**0
                  CONTENTS, READONLY
 22 .sysid_hash   00000004  00000000  00000000  000a28a8  2**0
                  CONTENTS, READONLY
 23 .sysid_base   00000004  00000000  00000000  000a28ac  2**0
                  CONTENTS, READONLY
 24 .sysid_time   00000004  00000000  00000000  000a28b0  2**0
                  CONTENTS, READONLY
 25 .stderr_dev   0000000b  00000000  00000000  000a28b4  2**0
                  CONTENTS, READONLY
 26 .stdin_dev    0000000b  00000000  00000000  000a28bf  2**0
                  CONTENTS, READONLY
 27 .stdout_dev   0000000b  00000000  00000000  000a28ca  2**0
                  CONTENTS, READONLY
 28 .sopc_system_name 0000000b  00000000  00000000  000a28d5  2**0
                  CONTENTS, READONLY
 29 .quartus_project_dir 00000024  00000000  00000000  000a28e0  2**0
                  CONTENTS, READONLY
 30 .sopcinfo     00097e28  00000000  00000000  000a2904  2**0
                  CONTENTS, READONLY
SYMBOL TABLE:
08000000 l    d  .entry	00000000 .entry
08000020 l    d  .exceptions	00000000 .exceptions
080001bc l    d  .text	00000000 .text
0801f5dc l    d  .rodata	00000000 .rodata
080208f4 l    d  .rwdata	00000000 .rwdata
08023f4c l    d  .bss	00000000 .bss
00000000 l    d  .onchip_memory2_0	00000000 .onchip_memory2_0
08028aec l    d  .sdram	00000000 .sdram
00000000 l    d  .comment	00000000 .comment
00000000 l    d  .debug_aranges	00000000 .debug_aranges
00000000 l    d  .debug_info	00000000 .debug_info
00000000 l    d  .debug_abbrev	00000000 .debug_abbrev
00000000 l    d  .debug_line	00000000 .debug_line
00000000 l    d  .debug_frame	00000000 .debug_frame
00000000 l    d  .debug_str	00000000 .debug_str
00000000 l    d  .debug_loc	00000000 .debug_loc
00000000 l    d  .debug_alt_sim_info	00000000 .debug_alt_sim_info
00000000 l    d  .debug_ranges	00000000 .debug_ranges
00000000 l    df *ABS*	00000000 ../usb_kb_bsp//obj/HAL/src/crt0.o
080001f4 l       .text	00000000 alt_after_alt_main
00000000 l    df *ABS*	00000000 alt_exception_entry.o
08000094 l       .exceptions	00000000 alt_exception_unknown
00000000 l    df *ABS*	00000000 alt_irq_handler.c
00000000 l    df *ABS*	00000000 final_input.c
00000000 l    df *ABS*	00000000 final_sm.c
080223d4 l     O .rwdata	00000004 toSample
00000000 l    df *ABS*	00000000 io_handler.c
00000000 l    df *ABS*	00000000 main.c
08023fd8 l     O .bss	00000002 ctl_reg.3332
08023fda l     O .bss	00000002 no_device.3333
00000000 l    df *ABS*	00000000 usb.c
00000000 l    df *ABS*	00000000 s_cos.c
00000000 l    df *ABS*	00000000 s_round.c
00000000 l    df *ABS*	00000000 s_sin.c
00000000 l    df *ABS*	00000000 w_log10.c
00000000 l    df *ABS*	00000000 w_pow.c
00000000 l    df *ABS*	00000000 w_sqrt.c
00000000 l    df *ABS*	00000000 e_log10.c
00000000 l    df *ABS*	00000000 e_pow.c
080200ec l     O .rodata	00000010 bp
080200cc l     O .rodata	00000010 dp_l
080200dc l     O .rodata	00000010 dp_h
00000000 l    df *ABS*	00000000 e_rem_pio2.c
0802017c l     O .rodata	00000108 two_over_pi
080200fc l     O .rodata	00000080 npio2_hw
00000000 l    df *ABS*	00000000 e_sqrt.c
00000000 l    df *ABS*	00000000 k_cos.c
00000000 l    df *ABS*	00000000 k_rem_pio2.c
080202c4 l     O .rodata	00000010 init_jk
08020284 l     O .rodata	00000040 PIo2
00000000 l    df *ABS*	00000000 k_sin.c
00000000 l    df *ABS*	00000000 s_fabs.c
00000000 l    df *ABS*	00000000 s_finite.c
00000000 l    df *ABS*	00000000 s_floor.c
00000000 l    df *ABS*	00000000 s_fpclassify.c
00000000 l    df *ABS*	00000000 s_lib_ver.c
00000000 l    df *ABS*	00000000 s_matherr.c
00000000 l    df *ABS*	00000000 s_nan.c
00000000 l    df *ABS*	00000000 s_rint.c
080202d4 l     O .rodata	00000010 TWO52
00000000 l    df *ABS*	00000000 s_scalbn.c
00000000 l    df *ABS*	00000000 e_log.c
00000000 l    df *ABS*	00000000 s_copysign.c
00000000 l    df *ABS*	00000000 libgcc2.c
00000000 l    df *ABS*	00000000 lib2-divmod.c
08009eb8 l     F .text	0000006c udivmodsi4
00000000 l    df *ABS*	00000000 lib2-mul.c
00000000 l    df *ABS*	00000000 divsf3.c
00000000 l    df *ABS*	00000000 floatsisf.c
00000000 l    df *ABS*	00000000 adddf3.c
00000000 l    df *ABS*	00000000 divdf3.c
00000000 l    df *ABS*	00000000 eqdf2.c
00000000 l    df *ABS*	00000000 gedf2.c
00000000 l    df *ABS*	00000000 ledf2.c
00000000 l    df *ABS*	00000000 muldf3.c
00000000 l    df *ABS*	00000000 subdf3.c
00000000 l    df *ABS*	00000000 fixdfsi.c
00000000 l    df *ABS*	00000000 floatsidf.c
00000000 l    df *ABS*	00000000 extendsfdf2.c
00000000 l    df *ABS*	00000000 truncdfsf2.c
00000000 l    df *ABS*	00000000 libgcc2.c
00000000 l    df *ABS*	00000000 libgcc2.c
00000000 l    df *ABS*	00000000 atof.c
00000000 l    df *ABS*	00000000 atoi.c
00000000 l    df *ABS*	00000000 errno.c
00000000 l    df *ABS*	00000000 impure.c
080208f4 l     O .rwdata	00000424 impure_data
00000000 l    df *ABS*	00000000 printf.c
00000000 l    df *ABS*	00000000 puts.c
00000000 l    df *ABS*	00000000 sprintf.c
00000000 l    df *ABS*	00000000 strlen.c
00000000 l    df *ABS*	00000000 strtod.c
08020d2c l     O .rwdata	00000014 fpi.2638
080203fc l     O .rodata	00000028 tinytens
08020d18 l     O .rwdata	00000014 fpinan.2674
00000000 l    df *ABS*	00000000 strtol.c
00000000 l    df *ABS*	00000000 vfprintf.c
08020463 l     O .rodata	00000010 zeroes.4166
08020473 l     O .rodata	00000010 blanks.4165
00000000 l    df *ABS*	00000000 vfprintf.c
08020483 l     O .rodata	00000010 zeroes.4181
08020493 l     O .rodata	00000010 blanks.4180
00000000 l    df *ABS*	00000000 wsetup.c
00000000 l    df *ABS*	00000000 ctype_.c
080205a4 l     O .rodata	00000180 _ctype_b
00000000 l    df *ABS*	00000000 dtoa.c
08012ec4 l     F .text	00000228 quorem
00000000 l    df *ABS*	00000000 fflush.c
00000000 l    df *ABS*	00000000 findfp.c
08014a6c l     F .text	00000008 __fp_lock
08014a74 l     F .text	00000008 __fp_unlock
08014a88 l     F .text	000001a0 __sinit.part.1
00000000 l    df *ABS*	00000000 mallocr.c
00000000 l    df *ABS*	00000000 fvwrite.c
00000000 l    df *ABS*	00000000 fwalk.c
00000000 l    df *ABS*	00000000 gdtoa-gethex.c
08015848 l     F .text	00000100 rshift
00000000 l    df *ABS*	00000000 gdtoa-hexnan.c
00000000 l    df *ABS*	00000000 locale.c
08020d60 l     O .rwdata	00000020 lc_ctype_charset
08020d40 l     O .rwdata	00000020 lc_message_charset
08020d80 l     O .rwdata	00000038 lconv
00000000 l    df *ABS*	00000000 makebuf.c
00000000 l    df *ABS*	00000000 mallocr.c
00000000 l    df *ABS*	00000000 memchr.c
00000000 l    df *ABS*	00000000 memcpy.c
00000000 l    df *ABS*	00000000 memmove.c
00000000 l    df *ABS*	00000000 memset.c
00000000 l    df *ABS*	00000000 mprec.c
0802075c l     O .rodata	0000000c p05.2678
00000000 l    df *ABS*	00000000 mallocr.c
00000000 l    df *ABS*	00000000 sbrkr.c
00000000 l    df *ABS*	00000000 stdio.c
00000000 l    df *ABS*	00000000 strcmp.c
00000000 l    df *ABS*	00000000 strncmp.c
00000000 l    df *ABS*	00000000 vfprintf.c
08020880 l     O .rodata	00000010 zeroes.4110
08020890 l     O .rodata	00000010 blanks.4109
00000000 l    df *ABS*	00000000 vfprintf.c
0801a00c l     F .text	000000fc __sprint_r.part.0
080208b0 l     O .rodata	00000010 blanks.4125
080208a0 l     O .rodata	00000010 zeroes.4126
00000000 l    df *ABS*	00000000 writer.c
00000000 l    df *ABS*	00000000 closer.c
00000000 l    df *ABS*	00000000 mallocr.c
00000000 l    df *ABS*	00000000 fclose.c
00000000 l    df *ABS*	00000000 fputwc.c
00000000 l    df *ABS*	00000000 fstatr.c
00000000 l    df *ABS*	00000000 int_errno.c
00000000 l    df *ABS*	00000000 isattyr.c
00000000 l    df *ABS*	00000000 lseekr.c
00000000 l    df *ABS*	00000000 readr.c
00000000 l    df *ABS*	00000000 wbuf.c
00000000 l    df *ABS*	00000000 wcrtomb.c
00000000 l    df *ABS*	00000000 wctomb_r.c
00000000 l    df *ABS*	00000000 libgcc2.c
00000000 l    df *ABS*	00000000 libgcc2.c
00000000 l    df *ABS*	00000000 eqsf2.c
00000000 l    df *ABS*	00000000 gesf2.c
00000000 l    df *ABS*	00000000 lesf2.c
00000000 l    df *ABS*	00000000 floatunsidf.c
00000000 l    df *ABS*	00000000 alt_close.c
0801cd98 l     F .text	00000050 alt_get_errno
00000000 l    df *ABS*	00000000 alt_dev.c
0801cec0 l     F .text	0000002c alt_dev_null_write
00000000 l    df *ABS*	00000000 alt_errno.c
00000000 l    df *ABS*	00000000 alt_fstat.c
0801ceec l     F .text	00000050 alt_get_errno
00000000 l    df *ABS*	00000000 alt_isatty.c
0801cff4 l     F .text	00000050 alt_get_errno
00000000 l    df *ABS*	00000000 alt_load.c
0801d0f0 l     F .text	00000064 alt_load_section
00000000 l    df *ABS*	00000000 alt_lseek.c
0801d1d4 l     F .text	00000050 alt_get_errno
00000000 l    df *ABS*	00000000 alt_main.c
00000000 l    df *ABS*	00000000 alt_malloc_lock.c
00000000 l    df *ABS*	00000000 alt_read.c
0801d3b8 l     F .text	00000050 alt_get_errno
00000000 l    df *ABS*	00000000 alt_release_fd.c
00000000 l    df *ABS*	00000000 alt_sbrk.c
08022410 l     O .rwdata	00000004 heap_end
00000000 l    df *ABS*	00000000 alt_usleep.c
00000000 l    df *ABS*	00000000 alt_write.c
0801d66c l     F .text	00000050 alt_get_errno
00000000 l    df *ABS*	00000000 alt_sys_init.c
0801d7bc l     F .text	00000038 alt_dev_reg
08021368 l     O .rwdata	00001060 jtag_uart_0
00000000 l    df *ABS*	00000000 altera_avalon_jtag_uart_fd.c
00000000 l    df *ABS*	00000000 altera_avalon_jtag_uart_init.c
0801da98 l     F .text	00000204 altera_avalon_jtag_uart_irq
0801dc9c l     F .text	000000a8 altera_avalon_jtag_uart_timeout
00000000 l    df *ABS*	00000000 altera_avalon_jtag_uart_ioctl.c
00000000 l    df *ABS*	00000000 altera_avalon_jtag_uart_read.c
00000000 l    df *ABS*	00000000 altera_avalon_jtag_uart_write.c
00000000 l    df *ABS*	00000000 alt_alarm_start.c
00000000 l    df *ABS*	00000000 alt_busy_sleep.c
00000000 l    df *ABS*	00000000 alt_dcache_flush_all.c
00000000 l    df *ABS*	00000000 alt_dev_llist_insert.c
0801e570 l     F .text	00000050 alt_get_errno
00000000 l    df *ABS*	00000000 alt_do_ctors.c
00000000 l    df *ABS*	00000000 alt_do_dtors.c
00000000 l    df *ABS*	00000000 alt_icache_flush_all.c
00000000 l    df *ABS*	00000000 alt_iic.c
00000000 l    df *ABS*	00000000 alt_iic_isr_register.c
00000000 l    df *ABS*	00000000 alt_io_redirect.c
0801ea08 l     F .text	000000e0 alt_open_fd
00000000 l    df *ABS*	00000000 alt_irq_vars.c
00000000 l    df *ABS*	00000000 alt_open.c
0801eb60 l     F .text	00000050 alt_get_errno
0801ebb0 l     F .text	000000f4 alt_file_locked
00000000 l    df *ABS*	00000000 alt_tick.c
00000000 l    df *ABS*	00000000 altera_nios2_gen2_irq.c
00000000 l    df *ABS*	00000000 alt_find_dev.c
00000000 l    df *ABS*	00000000 alt_find_file.c
00000000 l    df *ABS*	00000000 alt_get_fd.c
00000000 l    df *ABS*	00000000 atexit.c
00000000 l    df *ABS*	00000000 exit.c
00000000 l    df *ABS*	00000000 memcmp.c
00000000 l    df *ABS*	00000000 __atexit.c
00000000 l    df *ABS*	00000000 __call_atexit.c
00000000 l    df *ABS*	00000000 alt_exit.c
08018268 g     F .text	00000074 _mprec_log10
08018354 g     F .text	0000008c __any_on
0801ba38 g     F .text	00000054 _isatty_r
08020768 g     O .rodata	00000028 __mprec_tinytens
0801d300 g     F .text	00000078 alt_main
0800d028 g     F .text	000000b8 _puts_r
080289ec g     O .bss	00000100 alt_irq
080090b4 g     F .text	00000014 fabs
0801ba8c g     F .text	0000005c _lseek_r
08005e1c g     F .text	00000130 sqrt
08022420 g       *ABS*	00000000 __flash_rwdata_start
0800b7ac g     F .text	00000084 .hidden __eqdf2
08028aec g       *ABS*	00000000 __alt_heap_start
0800cfec g     F .text	0000003c printf
0801bcb4 g     F .text	0000009c _wcrtomb_r
08018aac g     F .text	0000005c __sseek
08014dd0 g     F .text	00000010 __sinit
0801bb44 g     F .text	00000154 __swbuf_r
080164b8 g     F .text	0000007c _setlocale_r
08014c28 g     F .text	00000078 __sfmoreglue
0801d398 g     F .text	00000020 __malloc_unlock
080055e8 g     F .text	00000104 round
0800d250 g     F .text	00001608 _strtod_r
0800a00c g     F .text	00000450 .hidden __divsf3
08005400 g     F .text	00000080 UsbGetRetryCnt
08000574 g     F .text	00000110 generate_frequencies
08017118 g     F .text	0000015c memmove
08003524 g     F .text	00000044 IO_init
08014db8 g     F .text	00000018 _cleanup
08017398 g     F .text	000000a8 _Balloc
08023f58 g     O .bss	00000008 b2
08002fc0 g     F .text	00000564 addToGraph
0800b830 g     F .text	000000e0 .hidden __gtdf2
0801efa0 g     F .text	00000020 altera_nios2_gen2_irq_init
0800cfb0 g     F .text	00000010 __errno
08000000 g     F .entry	0000000c __reset
08023f60 g     O .bss	00000004 type
08000020 g       *ABS*	00000000 __flash_exceptions_start
0801b9e0 g     F .text	00000058 _fstat_r
08023ff4 g     O .bss	00000004 errno
080090e4 g     F .text	000001f4 floor
08018a28 g     F .text	00000008 __seofread
08000a38 g     F .text	00002588 process_filter
08018e3c g     F .text	000011d0 ___svfiprintf_internal_r
08023ffc g     O .bss	00000004 alt_argv
0802a3c8 g       *ABS*	00000000 _gp
0801d63c g     F .text	00000030 usleep
080211e8 g     O .rwdata	00000180 alt_fd_list
080071e8 g     F .text	0000079c __ieee754_rem_pio2
0801efc0 g     F .text	00000090 alt_find_dev
08023f64 g     O .bss	00000008 A
08016fe0 g     F .text	00000138 memcpy
08016224 g     F .text	00000294 __hexnan
08023f6c g     O .bss	00000004 int_in
08014a7c g     F .text	0000000c _cleanup_r
0800cbb4 g     F .text	000000d0 .hidden __floatsidf
0801eae8 g     F .text	00000078 alt_io_redirect
0800b910 g     F .text	000000e0 .hidden __ltdf2
0801f5dc g       *ABS*	00000000 __DTOR_END__
0800d0e0 g     F .text	00000014 puts
080092d8 g     F .text	00000074 __fpclassifyd
080181c4 g     F .text	000000a4 __ratio
0801b544 g     F .text	00000024 __vfiprintf_internal
0801de98 g     F .text	0000020c altera_avalon_jtag_uart_read
00000000  w      *UND*	00000000 malloc
0800cfc0 g     F .text	0000002c _printf_r
00000000 g       *ABS*	00000000 __alt_mem_onchip_memory2_0
08009fd4 g     F .text	00000008 .hidden __udivsi3
0801d044 g     F .text	000000ac isatty
080207b8 g     O .rodata	000000c8 __mprec_tens
08023f70 g     O .bss	00000008 Q
08023f78 g     O .bss	00000008 b1
08016534 g     F .text	0000000c __locale_charset
08007c18 g     F .text	000004a4 __kernel_cos
0801cc3c g     F .text	000000b8 .hidden __lesf2
08009e44 g     F .text	00000074 .hidden __fixunsdfsi
08023ff0 g     O .bss	00000004 __malloc_top_pad
08004aa0 g     F .text	00000264 UsbGetConfigDesc2
080223e8 g     O .rwdata	00000004 __mb_cur_max
08016564 g     F .text	0000000c _localeconv_r
080177c0 g     F .text	0000003c __i2b
08015234 g     F .text	000004a4 __sfvwrite_r
08023f80 g     O .bss	00000008 a1
08018980 g     F .text	00000054 _sbrk_r
0801bae8 g     F .text	0000005c _read_r
08005f4c g     F .text	000001d0 __ieee754_log10
08022408 g     O .rwdata	00000004 alt_max_fd
0801b6f0 g     F .text	00000100 _fclose_r
08014a3c g     F .text	00000030 fflush
08023fec g     O .bss	00000004 __malloc_max_sbrked_mem
08008dec g     F .text	000002c8 __kernel_sin
0800cc84 g     F .text	00000110 .hidden __extendsfdf2
0800a590 g     F .text	0000089c .hidden __adddf3
0801cb10 g     F .text	00000074 .hidden __nesf2
08017f6c g     F .text	0000011c __b2d
0801c4f4 g     F .text	0000061c .hidden __umoddi3
0801d224 g     F .text	000000dc lseek
080223d8 g     O .rwdata	00000004 __fdlib_version
080223dc g     O .rwdata	00000004 _global_impure_ptr
080183e0 g     F .text	000005a0 _realloc_r
08028aec g       *ABS*	00000000 __bss_end
0801e918 g     F .text	000000f0 alt_iic_isr_register
0801ee9c g     F .text	00000104 alt_tick
080288ec g     O .bss	00000100 __hexdig
0801beb4 g     F .text	00000640 .hidden __udivdi3
0801b804 g     F .text	00000184 _fputwc_r
08020790 g     O .rodata	00000028 __mprec_bigtens
080175a4 g     F .text	00000104 __s2b
0801ccf4 g     F .text	000000a4 .hidden __floatunsidf
08017d14 g     F .text	00000060 __mcmp
08004500 g     F .text	000000fc UsbSetAddress
08014df0 g     F .text	00000018 __fp_lock_all
0801e8cc g     F .text	0000004c alt_ic_irq_enabled
08023f54 g     O .bss	00000004 state
0801ee04 g     F .text	00000098 alt_alarm_stop
0800ebe0 g     F .text	00000024 strtol
08024004 g     O .bss	00000004 alt_irq_active
080000ec g     F .exceptions	000000d0 alt_irq_handler
080211c0 g     O .rwdata	00000028 alt_dev_null
080080bc g     F .text	00000d30 __kernel_rem_pio2
08009360 g     F .text	000001e4 rint
0801e554 g     F .text	0000001c alt_dcache_flush_all
080176a8 g     F .text	00000068 __hi0bits
080035c0 g     F .text	00000054 IO_read
0800cb2c g     F .text	00000088 .hidden __fixdfsi
0800e858 g     F .text	0000001c strtod
08022420 g       *ABS*	00000000 __ram_rwdata_end
08023f88 g     O .bss	00000008 w0
08022400 g     O .rwdata	00000008 alt_dev_list
0801d6bc g     F .text	00000100 write
0800cf90 g     F .text	00000008 atof
0801cb84 g     F .text	000000b8 .hidden __gtsf2
080208f4 g       *ABS*	00000000 __ram_rodata_end
0801cf3c g     F .text	000000b8 fstat
08023f90 g     O .bss	00000004 biquad
0800b910 g     F .text	000000e0 .hidden __ledf2
08005480 g     F .text	0000007c UsbPrintMem
08017a8c g     F .text	00000140 __pow5mult
0801a120 g     F .text	00001424 ___vfiprintf_internal_r
08023fe4 g     O .bss	00000004 __nlocale_changed
08009fdc g     F .text	00000008 .hidden __umodsi3
08028aec g       *ABS*	00000000 end
0800cfa4 g     F .text	0000000c _atoi_r
0801d9d4 g     F .text	000000c4 altera_avalon_jtag_uart_init
080223c8 g     O .rwdata	00000004 i
0801f5dc g       *ABS*	00000000 __CTOR_LIST__
0c000000 g       *ABS*	00000000 __alt_stack_pointer
0800cf2c g     F .text	00000064 .hidden __clzsi2
0801e0a4 g     F .text	00000218 altera_avalon_jtag_uart_write
080054fc g     F .text	000000ec cos
08014de0 g     F .text	00000004 __sfp_lock_acquire
08016ef8 g     F .text	000000e8 memchr
08010c74 g     F .text	000020fc ___vfprintf_internal_r
0800d0f4 g     F .text	00000058 _sprintf_r
08004e00 g     F .text	000000fc UsbClassRequest
08014f44 g     F .text	000002f0 _free_r
08016540 g     F .text	00000010 __locale_mb_cur_max
0801f414 g     F .text	00000194 __call_exitprocs
08023fe0 g     O .bss	00000004 __mlocale_changed
080223ec g     O .rwdata	00000004 __malloc_sbrk_base
080001bc g     F .text	0000003c _start
08024008 g     O .bss	00000004 _alt_tick_rate
080056ec g     F .text	000000f0 sin
08017bcc g     F .text	00000148 __lshift
0802400c g     O .bss	00000004 _alt_nticks
0801d408 g     F .text	00000104 read
0801d828 g     F .text	00000048 alt_sys_init
0800a45c g     F .text	00000134 .hidden __floatsisf
08018c74 g     F .text	000001c8 __ssprint_r
0801f300 g     F .text	00000114 __register_exitproc
08018bb4 g     F .text	000000c0 strncmp
080177fc g     F .text	00000290 __multiply
0800611c g     F .text	000010cc __ieee754_pow
0801dd44 g     F .text	00000068 altera_avalon_jtag_uart_close
08005978 g     F .text	000004a4 pow
08009fe4 g     F .text	00000028 .hidden __mulsi3
080208f4 g       *ABS*	00000000 __ram_rwdata_start
0801f5dc g       *ABS*	00000000 __ram_rodata_start
08024824 g     O .bss	00000028 __malloc_current_mallinfo
0801cb10 g     F .text	00000074 .hidden __eqsf2
08018088 g     F .text	0000013c __d2b
08023f94 g     O .bss	00000008 G
080057dc g     F .text	0000019c log10
080045fc g     F .text	00000144 UsbGetDeviceDesc1
0801d870 g     F .text	00000060 altera_avalon_jtag_uart_read_fd
0801f164 g     F .text	000000d4 alt_get_fd
0801e3fc g     F .text	00000158 alt_busy_sleep
0801b5c4 g     F .text	00000054 _close_r
0801f284 g     F .text	0000007c memcmp
0801d930 g     F .text	00000050 altera_avalon_jtag_uart_close_fd
08028aec g       *ABS*	00000000 __alt_stack_base
0801d980 g     F .text	00000054 altera_avalon_jtag_uart_ioctl_fd
08023f9c g     O .bss	00000008 bCoeffsSq
08012d94 g     F .text	00000130 __swsetup_r
0800ae2c g     F .text	00000980 .hidden __divdf3
08014ca0 g     F .text	00000118 __sfp
080182dc g     F .text	00000078 __copybits
08020db8 g     O .rwdata	00000408 __malloc_av_
08014dec g     F .text	00000004 __sinit_lock_release
0800b9f0 g     F .text	0000086c .hidden __muldf3
080189d4 g     F .text	00000054 __sread
0800537c g     F .text	00000084 UsbWaitTDListDone
08023fa4 g     O .bss	00000008 double_in
0801f050 g     F .text	00000114 alt_find_file
0801e5c0 g     F .text	000000a4 alt_dev_llist_insert
0801d378 g     F .text	00000020 __malloc_lock
0801d58c g     F .text	000000b0 sbrk
0800ec04 g     F .text	00002070 ___svfprintf_internal_r
08014814 g     F .text	00000228 _fflush_r
0801b618 g     F .text	000000d8 _calloc_r
08023f4c g       *ABS*	00000000 __bss_start
08017274 g     F .text	00000124 memset
08003614 g     F .text	00000d9c main
08024000 g     O .bss	00000004 alt_envp
08023fe8 g     O .bss	00000004 __malloc_max_total_mem
0801d8d0 g     F .text	00000060 altera_avalon_jtag_uart_write_fd
08004d04 g     F .text	000000fc UsbSetConfig
08023fac g     O .bss	00000008 a2
0801bc98 g     F .text	0000001c __swbuf
0801cc3c g     F .text	000000b8 .hidden __ltsf2
08018b08 g     F .text	00000008 __sclose
0800934c g     F .text	00000008 matherr
0c000000 g       *ABS*	00000000 __alt_heap_limit
0801b7f0 g     F .text	00000014 fclose
0800e978 g     F .text	00000268 _strtol_r
0800cd94 g     F .text	00000198 .hidden __truncdfsf2
080130ec g     F .text	00001728 _dtoa_r
08016750 g     F .text	000007a8 _malloc_r
0801be28 g     F .text	00000030 __ascii_wctomb
0802240c g     O .rwdata	00000004 alt_errno
080156d8 g     F .text	000000b8 _fwalk
08009f24 g     F .text	00000054 .hidden __divsi3
08014e20 g     F .text	00000124 _malloc_trim_r
08004efc g     F .text	00000144 UsbGetHidDesc
0801f5dc g       *ABS*	00000000 __CTOR_END__
080090c8 g     F .text	0000001c finite
08018b10 g     F .text	000000a4 strcmp
0801f5dc g       *ABS*	00000000 __flash_rodata_start
0801f5dc g       *ABS*	00000000 __DTOR_LIST__
08009e28 g     F .text	0000001c copysign
0800b7ac g     F .text	00000084 .hidden __nedf2
08004404 g     F .text	0000004c UsbRead
0801d7f4 g     F .text	00000034 alt_irq_init
0801d50c g     F .text	00000080 alt_release_fd
0800d14c g     F .text	0000006c sprintf
080202e4 g     O .rodata	00000100 .hidden __clz_tab
08023fdc g     O .bss	00000004 _PathLocale
0800e874 g     F .text	00000104 strtof
0801f238 g     F .text	00000014 atexit
0801cb84 g     F .text	000000b8 .hidden __gesf2
0801b568 g     F .text	0000005c _write_r
08016570 g     F .text	0000001c setlocale
080223e0 g     O .rwdata	00000004 _impure_ptr
08023ff8 g     O .bss	00000004 alt_argc
08009544 g     F .text	000001cc scalbn
0801e6c0 g     F .text	0000005c _do_dtors
0801655c g     F .text	00000008 __locale_cjk_lang
08009710 g     F .text	00000718 __ieee754_log
08023fb4 g     O .bss	00000008 aCoeffsSq
08000020 g       .exceptions	00000000 alt_irq_entry
08017f0c g     F .text	00000060 __ulp
08014e08 g     F .text	00000018 __fp_unlock_all
0802484c g     O .bss	000040a0 samples
080223f8 g     O .rwdata	00000008 alt_fs_list
08005040 g     F .text	0000033c UsbGetReportDesc
08009354 g     F .text	0000000c nan
08000020 g       *ABS*	00000000 __ram_exceptions_start
0801658c g     F .text	0000000c localeconv
08007984 g     F .text	00000294 __ieee754_sqrt
0801e738 g     F .text	00000050 alt_ic_isr_register
08015948 g     F .text	00000084 __hexdig_init
08022420 g       *ABS*	00000000 _edata
08028aec g       *ABS*	00000000 _end
080043b0 g     F .text	00000054 UsbWrite
080001bc g       *ABS*	00000000 __ram_exceptions_end
0801ddac g     F .text	000000ec altera_avalon_jtag_uart_ioctl
08023f4c g     O .bss	00000006 str
0801e828 g     F .text	000000a4 alt_ic_irq_disable
08018a30 g     F .text	0000007c __swrite
080223f0 g     O .rwdata	00000004 __malloc_trim_threshold
08016550 g     F .text	0000000c __locale_msgcharset
08023fbc g     O .bss	00000008 b0
0801f24c g     F .text	00000038 exit
08015790 g     F .text	000000b8 _fwalk_reent
08017d74 g     F .text	00000198 __mdiff
080001f8 g     F .text	0000037c handle_keycode
08009f78 g     F .text	0000005c .hidden __modsi3
080223e4 g     O .rwdata	00000004 __ctype_ptr__
0c000000 g       *ABS*	00000000 __alt_data_end
08000020 g     F .exceptions	00000000 alt_exception
08014de4 g     F .text	00000004 __sfp_lock_release
08000000 g       *ABS*	00000000 __alt_mem_sdram
0800cf98 g     F .text	0000000c atoi
08003568 g     F .text	00000058 IO_write
080204a3 g     O .rodata	00000101 _ctype_
0801f5a8 g     F .text	00000034 _exit
0801e2bc g     F .text	00000140 alt_alarm_start
08016598 g     F .text	000001b8 __smakebuf_r
0800d1b8 g     F .text	00000098 strlen
0801eca4 g     F .text	00000160 open
0800b830 g     F .text	000000e0 .hidden __gedf2
080159cc g     F .text	00000858 __gethex
080223f4 g     O .rwdata	00000004 __wctomb
0801a108 g     F .text	00000018 __sprint_r
0801e71c g     F .text	0000001c alt_icache_flush_all
080006f0 g     F .text	00000348 sm_process_str
08022414 g     O .rwdata	00000004 alt_priority_mask
0801e788 g     F .text	000000a0 alt_ic_irq_enable
08012d70 g     F .text	00000024 __vfprintf_internal
0801be58 g     F .text	0000005c _wctomb_r
080223cc g     O .rwdata	00000008 Fs
0800c25c g     F .text	000008d0 .hidden __subdf3
08023fc4 g     O .bss	00000008 a0
08023fcc g     O .bss	00000008 alpha
08017710 g     F .text	000000b0 __lo0bits
08004914 g     F .text	0000018c UsbGetConfigDesc1
08022418 g     O .rwdata	00000008 alt_alarm_list
0801e664 g     F .text	0000005c _do_ctors
08023fd4 g     O .bss	00000004 F
08000684 g     F .text	0000006c sm_init
08004450 g     F .text	000000b0 UsbSoftReset
0801bd50 g     F .text	000000d8 wcrtomb
0801cde8 g     F .text	000000d8 close
08004740 g     F .text	000001d4 UsbGetDeviceDesc2
0801d154 g     F .text	00000080 alt_load
0801b988 g     F .text	00000058 fputwc
08024010 g     O .bss	00000814 frequencies
00000000  w      *UND*	00000000 free
08014de8 g     F .text	00000004 __sinit_lock_acquire
08017468 g     F .text	0000013c __multadd
08017440 g     F .text	00000028 _Bfree



Disassembly of section .entry:

08000000 <__reset>:
 * Jump to the _start entry point in the .text section if reset code
 * is allowed or if optimizing for RTL simulation.
 */
#if defined(ALT_ALLOW_CODE_AT_RESET) || defined(ALT_SIM_OPTIMIZE)
    /* Jump to the _start entry point in the .text section. */
    movhi r1, %hi(_start)
 8000000:	00420034 	movhi	at,2048
    ori r1, r1, %lo(_start)
 8000004:	08406f14 	ori	at,at,444
    jmp r1
 8000008:	0800683a 	jmp	at
	...

Disassembly of section .exceptions:

08000020 <alt_exception>:

#else /* ALT_EXCEPTION_STACK disabled */
        /* 
         * Reserve space on normal stack for registers about to be pushed.
         */
        addi  sp, sp, -76
 8000020:	deffed04 	addi	sp,sp,-76
         * documentation for details).
         *
         * Leave a gap in the stack frame at 4(sp) for the muldiv handler to
         * store zero into.
         */
        stw   ra,  0(sp)
 8000024:	dfc00015 	stw	ra,0(sp)
        stw   r1,   8(sp)
 8000028:	d8400215 	stw	at,8(sp)
        stw   r2,  12(sp)
 800002c:	d8800315 	stw	r2,12(sp)
        stw   r3,  16(sp)
 8000030:	d8c00415 	stw	r3,16(sp)
        stw   r4,  20(sp)
 8000034:	d9000515 	stw	r4,20(sp)
        stw   r5,  24(sp)
 8000038:	d9400615 	stw	r5,24(sp)
        stw   r6,  28(sp)
 800003c:	d9800715 	stw	r6,28(sp)
        stw   r7,  32(sp)
 8000040:	d9c00815 	stw	r7,32(sp)
        rdctl r5, estatus   /* Read early to avoid usage stall */
 8000044:	000b307a 	rdctl	r5,estatus
        stw   r8,  36(sp)
 8000048:	da000915 	stw	r8,36(sp)
        stw   r9,  40(sp)
 800004c:	da400a15 	stw	r9,40(sp)
        stw   r10, 44(sp)
 8000050:	da800b15 	stw	r10,44(sp)
        stw   r11, 48(sp)
 8000054:	dac00c15 	stw	r11,48(sp)
        stw   r12, 52(sp)
 8000058:	db000d15 	stw	r12,52(sp)
        stw   r13, 56(sp)
 800005c:	db400e15 	stw	r13,56(sp)
        stw   r14, 60(sp)
 8000060:	db800f15 	stw	r14,60(sp)
        stw   r15, 64(sp)
 8000064:	dbc01015 	stw	r15,64(sp)
        /*
         * ea-4 contains the address of the instruction being executed
         * when the exception occured. For interrupt exceptions, we will
         * will be re-issue the isntruction. Store it in 72(sp)
         */
        stw   r5,  68(sp)  /* estatus */
 8000068:	d9401115 	stw	r5,68(sp)
        addi  r15, ea, -4  /* instruction that caused exception */
 800006c:	ebffff04 	addi	r15,ea,-4
        stw   r15,  72(sp)
 8000070:	dbc01215 	stw	r15,72(sp)
#else
        /*
         * Test to see if the exception was a software exception or caused 
         * by an external interrupt, and vector accordingly.
         */
        rdctl r4, ipending
 8000074:	0009313a 	rdctl	r4,ipending
        andi  r2, r5, 1
 8000078:	2880004c 	andi	r2,r5,1
        beq   r2, zero, .Lnot_irq
 800007c:	10000326 	beq	r2,zero,800008c <alt_exception+0x6c>
        beq   r4, zero, .Lnot_irq
 8000080:	20000226 	beq	r4,zero,800008c <alt_exception+0x6c>
        /*
         * Now that all necessary registers have been preserved, call 
         * alt_irq_handler() to process the interrupts.
         */

        call alt_irq_handler
 8000084:	80000ec0 	call	80000ec <alt_irq_handler>

        .section .exceptions.irqreturn, "xa"

        br    .Lexception_exit
 8000088:	00000306 	br	8000098 <alt_exception_unknown+0x4>
         * upon completion, so we write ea (address of instruction *after*
         * the one where the exception occured) into 72(sp). The actual
         * instruction that caused the exception is written in r2, which these
         * handlers will utilize.
         */
        stw   ea,  72(sp)  /* Don't re-issue */
 800008c:	df401215 	stw	ea,72(sp)
        ldhu.n  r2, 0(r4)
        ldhu.n  r3, 2(r4)
        slli.n  r3, r3, 16
        or.n    r2, r2, r3 /* Instruction that caused exception */
#else
        ldw   r2, -4(ea)   /* Instruction that caused exception */
 8000090:	e8bfff17 	ldw	r2,-4(ea)

08000094 <alt_exception_unknown>:
#ifdef NIOS2_HAS_DEBUG_STUB
       /*
        *  Either tell the user now (if there is a debugger attached) or go into
        *  the debug monitor which will loop until a debugger is attached.
        */
        break
 8000094:	003da03a 	break	0
        /* 
         * Restore the saved registers, so that all general purpose registers 
         * have been restored to their state at the time the interrupt occured.
         */

        ldw   r5,  68(sp)
 8000098:	d9401117 	ldw	r5,68(sp)
        ldw   ea,  72(sp)  /* This becomes the PC once eret is executed */
 800009c:	df401217 	ldw	ea,72(sp)
        ldw   ra,   0(sp)
 80000a0:	dfc00017 	ldw	ra,0(sp)

        wrctl estatus, r5
 80000a4:	2801707a 	wrctl	estatus,r5

        ldw   r1,   8(sp)
 80000a8:	d8400217 	ldw	at,8(sp)
        ldw   r2,  12(sp)
 80000ac:	d8800317 	ldw	r2,12(sp)
        ldw   r3,  16(sp)
 80000b0:	d8c00417 	ldw	r3,16(sp)
        ldw   r4,  20(sp)
 80000b4:	d9000517 	ldw	r4,20(sp)
        ldw   r5,  24(sp)
 80000b8:	d9400617 	ldw	r5,24(sp)
        ldw   r6,  28(sp)
 80000bc:	d9800717 	ldw	r6,28(sp)
        ldw   r7,  32(sp)
 80000c0:	d9c00817 	ldw	r7,32(sp)

#if defined(ALT_EXCEPTION_STACK) && defined(ALT_STACK_CHECK)
        ldw   et, %gprel(alt_exception_old_stack_limit)(gp)
#endif

        ldw   r8,  36(sp)
 80000c4:	da000917 	ldw	r8,36(sp)
        ldw   r9,  40(sp)
 80000c8:	da400a17 	ldw	r9,40(sp)
        ldw   r10, 44(sp)
 80000cc:	da800b17 	ldw	r10,44(sp)
        ldw   r11, 48(sp)
 80000d0:	dac00c17 	ldw	r11,48(sp)
        ldw   r12, 52(sp)
 80000d4:	db000d17 	ldw	r12,52(sp)
        ldw   r13, 56(sp)
 80000d8:	db400e17 	ldw	r13,56(sp)
        ldw   r14, 60(sp)
 80000dc:	db800f17 	ldw	r14,60(sp)
        ldw   r15, 64(sp)
 80000e0:	dbc01017 	ldw	r15,64(sp)
        stw   et, %gprel(alt_stack_limit_value)(gp)
        stw   zero, %gprel(alt_exception_old_stack_limit)(gp)
#endif /* ALT_STACK_CHECK */
        ldw   sp,  76(sp)
#else /* ALT_EXCEPTION_STACK disabled */
        addi  sp, sp, 76
 80000e4:	dec01304 	addi	sp,sp,76

        /*
         * Return to the interrupted instruction.
         */

        eret
 80000e8:	ef80083a 	eret

080000ec <alt_irq_handler>:
 * instruction is present if the macro ALT_CI_INTERRUPT_VECTOR defined.
 */

void alt_irq_handler (void) __attribute__ ((section (".exceptions")));
void alt_irq_handler (void)
{
 80000ec:	defff904 	addi	sp,sp,-28
 80000f0:	dfc00615 	stw	ra,24(sp)
 80000f4:	df000515 	stw	fp,20(sp)
 80000f8:	df000504 	addi	fp,sp,20
  
  /*
   * Notify the operating system that we are at interrupt level.
   */ 
  
  ALT_OS_INT_ENTER();
 80000fc:	0001883a 	nop
#ifndef NIOS2_EIC_PRESENT
static ALT_INLINE alt_u32 ALT_ALWAYS_INLINE alt_irq_pending (void)
{
  alt_u32 active;

  NIOS2_READ_IPENDING (active);
 8000100:	0005313a 	rdctl	r2,ipending
 8000104:	e0bffe15 	stw	r2,-8(fp)

  return active;
 8000108:	e0bffe17 	ldw	r2,-8(fp)
   * Consider the case where the high priority interupt is asserted during
   * the interrupt entry sequence for a lower priority interrupt to see why
   * this is the case.
   */

  active = alt_irq_pending ();
 800010c:	e0bffb15 	stw	r2,-20(fp)

  do
  {
    i = 0;
 8000110:	e03ffd15 	stw	zero,-12(fp)
    mask = 1;
 8000114:	00800044 	movi	r2,1
 8000118:	e0bffc15 	stw	r2,-16(fp)
     * called to clear the interrupt condition.
     */

    do
    {
      if (active & mask)
 800011c:	e0fffb17 	ldw	r3,-20(fp)
 8000120:	e0bffc17 	ldw	r2,-16(fp)
 8000124:	1884703a 	and	r2,r3,r2
 8000128:	10001426 	beq	r2,zero,800017c <alt_irq_handler+0x90>
      { 
#ifdef ALT_ENHANCED_INTERRUPT_API_PRESENT
        alt_irq[i].handler(alt_irq[i].context); 
 800012c:	008200f4 	movhi	r2,2051
 8000130:	10a27b04 	addi	r2,r2,-30228
 8000134:	e0fffd17 	ldw	r3,-12(fp)
 8000138:	180690fa 	slli	r3,r3,3
 800013c:	10c5883a 	add	r2,r2,r3
 8000140:	10c00017 	ldw	r3,0(r2)
 8000144:	008200f4 	movhi	r2,2051
 8000148:	10a27b04 	addi	r2,r2,-30228
 800014c:	e13ffd17 	ldw	r4,-12(fp)
 8000150:	200890fa 	slli	r4,r4,3
 8000154:	1105883a 	add	r2,r2,r4
 8000158:	10800104 	addi	r2,r2,4
 800015c:	10800017 	ldw	r2,0(r2)
 8000160:	1009883a 	mov	r4,r2
 8000164:	183ee83a 	callr	r3
#else
        alt_irq[i].handler(alt_irq[i].context, i); 
#endif
        break;
 8000168:	0001883a 	nop
#ifndef NIOS2_EIC_PRESENT
static ALT_INLINE alt_u32 ALT_ALWAYS_INLINE alt_irq_pending (void)
{
  alt_u32 active;

  NIOS2_READ_IPENDING (active);
 800016c:	0005313a 	rdctl	r2,ipending
 8000170:	e0bfff15 	stw	r2,-4(fp)

  return active;
 8000174:	e0bfff17 	ldw	r2,-4(fp)
 8000178:	00000706 	br	8000198 <alt_irq_handler+0xac>
      }
      mask <<= 1;
 800017c:	e0bffc17 	ldw	r2,-16(fp)
 8000180:	1085883a 	add	r2,r2,r2
 8000184:	e0bffc15 	stw	r2,-16(fp)
      i++;
 8000188:	e0bffd17 	ldw	r2,-12(fp)
 800018c:	10800044 	addi	r2,r2,1
 8000190:	e0bffd15 	stw	r2,-12(fp)

    } while (1);
 8000194:	003fe106 	br	800011c <__alt_data_end+0xfc00011c>

    active = alt_irq_pending ();
 8000198:	e0bffb15 	stw	r2,-20(fp)
    
  } while (active);
 800019c:	e0bffb17 	ldw	r2,-20(fp)
 80001a0:	103fdb1e 	bne	r2,zero,8000110 <__alt_data_end+0xfc000110>

  /*
   * Notify the operating system that interrupt processing is complete.
   */ 

  ALT_OS_INT_EXIT();
 80001a4:	0001883a 	nop
}
 80001a8:	e037883a 	mov	sp,fp
 80001ac:	dfc00117 	ldw	ra,4(sp)
 80001b0:	df000017 	ldw	fp,0(sp)
 80001b4:	dec00204 	addi	sp,sp,8
 80001b8:	f800283a 	ret

Disassembly of section .text:

080001bc <_start>:

    /*
     * Now that the caches are initialized, set up the stack pointer and global pointer.
     * The values provided by the linker are assumed to be correctly aligned.
     */
    movhi sp, %hi(__alt_stack_pointer)
 80001bc:	06c30034 	movhi	sp,3072
    ori sp, sp, %lo(__alt_stack_pointer)
 80001c0:	dec00014 	ori	sp,sp,0
    movhi gp, %hi(_gp)
 80001c4:	068200b4 	movhi	gp,2050
    ori gp, gp, %lo(_gp)
 80001c8:	d6a8f214 	ori	gp,gp,41928
 */
#ifndef ALT_SIM_OPTIMIZE
    /* Log that the BSS is about to be cleared. */
    ALT_LOG_PUTS(alt_log_msg_bss)

    movhi r2, %hi(__bss_start)
 80001cc:	008200b4 	movhi	r2,2050
    ori r2, r2, %lo(__bss_start)
 80001d0:	108fd314 	ori	r2,r2,16204

    movhi r3, %hi(__bss_end)
 80001d4:	00c200b4 	movhi	r3,2050
    ori r3, r3, %lo(__bss_end)
 80001d8:	18e2bb14 	ori	r3,r3,35564

    beq r2, r3, 1f
 80001dc:	10c00326 	beq	r2,r3,80001ec <_start+0x30>

0:
    stw zero, (r2)
 80001e0:	10000015 	stw	zero,0(r2)
    addi r2, r2, 4
 80001e4:	10800104 	addi	r2,r2,4
    bltu r2, r3, 0b
 80001e8:	10fffd36 	bltu	r2,r3,80001e0 <__alt_data_end+0xfc0001e0>
     * section aren't defined until alt_load() has been called).
     */
    mov   et, zero
#endif

    call alt_load
 80001ec:	801d1540 	call	801d154 <alt_load>

    /* Log that alt_main is about to be called. */
    ALT_LOG_PUTS(alt_log_msg_alt_main)

    /* Call the C entry point. It should never return. */
    call alt_main
 80001f0:	801d3000 	call	801d300 <alt_main>

080001f4 <alt_after_alt_main>:

    /* Wait in infinite loop in case alt_main does return. */
alt_after_alt_main:
    br alt_after_alt_main
 80001f4:	003fff06 	br	80001f4 <__alt_data_end+0xfc0001f4>

080001f8 <handle_keycode>:
#define false 0

char str[6] = {0,0,0,0,0,0}; // can store 5 characters
int i = -1;

void handle_keycode(char key) {
 80001f8:	defffd04 	addi	sp,sp,-12
 80001fc:	dfc00215 	stw	ra,8(sp)
 8000200:	df000115 	stw	fp,4(sp)
 8000204:	df000104 	addi	fp,sp,4
 8000208:	2005883a 	mov	r2,r4
 800020c:	e0bfff05 	stb	r2,-4(fp)
	if (i >= 4 && key != 0x28) // handle out of bounds
 8000210:	d0a00017 	ldw	r2,-32768(gp)
 8000214:	10800110 	cmplti	r2,r2,4
 8000218:	1000041e 	bne	r2,zero,800022c <handle_keycode+0x34>
 800021c:	e0bfff07 	ldb	r2,-4(fp)
 8000220:	10800a20 	cmpeqi	r2,r2,40
 8000224:	1000011e 	bne	r2,zero,800022c <handle_keycode+0x34>
		return;
 8000228:	0000cd06 	br	8000560 <handle_keycode+0x368>
	switch (key) {
 800022c:	e0bfff07 	ldb	r2,-4(fp)
 8000230:	10bffe04 	addi	r2,r2,-8
 8000234:	10c00c28 	cmpgeui	r3,r2,48
 8000238:	1800c91e 	bne	r3,zero,8000560 <handle_keycode+0x368>
 800023c:	100690ba 	slli	r3,r2,2
 8000240:	00820034 	movhi	r2,2048
 8000244:	10809504 	addi	r2,r2,596
 8000248:	1885883a 	add	r2,r3,r2
 800024c:	10800017 	ldw	r2,0(r2)
 8000250:	1000683a 	jmp	r2
 8000254:	08000314 	ori	zero,at,12
 8000258:	08000560 	cmpeqi	zero,at,21
 800025c:	08000560 	cmpeqi	zero,at,21
 8000260:	08000560 	cmpeqi	zero,at,21
 8000264:	08000560 	cmpeqi	zero,at,21
 8000268:	08000560 	cmpeqi	zero,at,21
 800026c:	08000560 	cmpeqi	zero,at,21
 8000270:	08000560 	cmpeqi	zero,at,21
 8000274:	08000560 	cmpeqi	zero,at,21
 8000278:	08000560 	cmpeqi	zero,at,21
 800027c:	08000560 	cmpeqi	zero,at,21
 8000280:	08000560 	cmpeqi	zero,at,21
 8000284:	08000560 	cmpeqi	zero,at,21
 8000288:	08000560 	cmpeqi	zero,at,21
 800028c:	08000560 	cmpeqi	zero,at,21
 8000290:	08000560 	cmpeqi	zero,at,21
 8000294:	08000560 	cmpeqi	zero,at,21
 8000298:	08000560 	cmpeqi	zero,at,21
 800029c:	08000560 	cmpeqi	zero,at,21
 80002a0:	08000560 	cmpeqi	zero,at,21
 80002a4:	08000560 	cmpeqi	zero,at,21
 80002a8:	08000560 	cmpeqi	zero,at,21
 80002ac:	080003b0 	cmpltui	zero,at,14
 80002b0:	080003d4 	ori	zero,at,15
 80002b4:	080003f8 	rdprs	zero,at,15
 80002b8:	0800041c 	xori	zero,at,16
 80002bc:	08000440 	call	800044 <__alt_mem_onchip_memory2_0+0x800044>
 80002c0:	08000464 	muli	zero,at,17
 80002c4:	08000488 	cmpgei	zero,at,18
 80002c8:	080004ac 	andhi	zero,at,18
 80002cc:	080004d0 	cmplti	zero,at,19
 80002d0:	080004f4 	orhi	zero,at,19
 80002d4:	0800035c 	xori	zero,at,13
 80002d8:	08000560 	cmpeqi	zero,at,21
 80002dc:	08000560 	cmpeqi	zero,at,21
 80002e0:	08000560 	cmpeqi	zero,at,21
 80002e4:	08000560 	cmpeqi	zero,at,21
 80002e8:	0800053c 	xorhi	zero,at,20
 80002ec:	08000560 	cmpeqi	zero,at,21
 80002f0:	08000560 	cmpeqi	zero,at,21
 80002f4:	08000560 	cmpeqi	zero,at,21
 80002f8:	08000560 	cmpeqi	zero,at,21
 80002fc:	08000560 	cmpeqi	zero,at,21
 8000300:	08000560 	cmpeqi	zero,at,21
 8000304:	08000560 	cmpeqi	zero,at,21
 8000308:	08000560 	cmpeqi	zero,at,21
 800030c:	08000560 	cmpeqi	zero,at,21
 8000310:	08000518 	cmpnei	zero,at,20
	case 0x08: // 'E'
		if (sm_init()) { // if initialization ran, clear any existing data
 8000314:	80006840 	call	8000684 <sm_init>
 8000318:	10000f26 	beq	r2,zero,8000358 <handle_keycode+0x160>
			for (i = 0; i < 6; i++) {
 800031c:	d0200015 	stw	zero,-32768(gp)
 8000320:	00000706 	br	8000340 <handle_keycode+0x148>
				str[i] = 0;
 8000324:	d0e00017 	ldw	r3,-32768(gp)
 8000328:	d0a6e104 	addi	r2,gp,-25724
 800032c:	1885883a 	add	r2,r3,r2
 8000330:	10000005 	stb	zero,0(r2)
	if (i >= 4 && key != 0x28) // handle out of bounds
		return;
	switch (key) {
	case 0x08: // 'E'
		if (sm_init()) { // if initialization ran, clear any existing data
			for (i = 0; i < 6; i++) {
 8000334:	d0a00017 	ldw	r2,-32768(gp)
 8000338:	10800044 	addi	r2,r2,1
 800033c:	d0a00015 	stw	r2,-32768(gp)
 8000340:	d0a00017 	ldw	r2,-32768(gp)
 8000344:	10800190 	cmplti	r2,r2,6
 8000348:	103ff61e 	bne	r2,zero,8000324 <__alt_data_end+0xfc000324>
				str[i] = 0;
			}
			i = -1;
 800034c:	00bfffc4 	movi	r2,-1
 8000350:	d0a00015 	stw	r2,-32768(gp)
		}
		break;
 8000354:	00008206 	br	8000560 <handle_keycode+0x368>
 8000358:	00008106 	br	8000560 <handle_keycode+0x368>
	case 0x28: // ENTER
		if (i != -1) {
 800035c:	d0a00017 	ldw	r2,-32768(gp)
 8000360:	10bfffe0 	cmpeqi	r2,r2,-1
 8000364:	1000111e 	bne	r2,zero,80003ac <handle_keycode+0x1b4>
			sm_process_str(str);
 8000368:	d126e104 	addi	r4,gp,-25724
 800036c:	80006f00 	call	80006f0 <sm_process_str>
			for (i = 0; i < 6; i++) {
 8000370:	d0200015 	stw	zero,-32768(gp)
 8000374:	00000706 	br	8000394 <handle_keycode+0x19c>
				str[i] = 0;
 8000378:	d0e00017 	ldw	r3,-32768(gp)
 800037c:	d0a6e104 	addi	r2,gp,-25724
 8000380:	1885883a 	add	r2,r3,r2
 8000384:	10000005 	stb	zero,0(r2)
		}
		break;
	case 0x28: // ENTER
		if (i != -1) {
			sm_process_str(str);
			for (i = 0; i < 6; i++) {
 8000388:	d0a00017 	ldw	r2,-32768(gp)
 800038c:	10800044 	addi	r2,r2,1
 8000390:	d0a00015 	stw	r2,-32768(gp)
 8000394:	d0a00017 	ldw	r2,-32768(gp)
 8000398:	10800190 	cmplti	r2,r2,6
 800039c:	103ff61e 	bne	r2,zero,8000378 <__alt_data_end+0xfc000378>
				str[i] = 0;
			}
			i = -1;
 80003a0:	00bfffc4 	movi	r2,-1
 80003a4:	d0a00015 	stw	r2,-32768(gp)
		}
		break;
 80003a8:	00006d06 	br	8000560 <handle_keycode+0x368>
 80003ac:	00006c06 	br	8000560 <handle_keycode+0x368>
	case 0x1e: // '1'
		i++;
 80003b0:	d0a00017 	ldw	r2,-32768(gp)
 80003b4:	10800044 	addi	r2,r2,1
 80003b8:	d0a00015 	stw	r2,-32768(gp)
		str[i] = '1';
 80003bc:	d0e00017 	ldw	r3,-32768(gp)
 80003c0:	d0a6e104 	addi	r2,gp,-25724
 80003c4:	1885883a 	add	r2,r3,r2
 80003c8:	00c00c44 	movi	r3,49
 80003cc:	10c00005 	stb	r3,0(r2)
		break;
 80003d0:	00006306 	br	8000560 <handle_keycode+0x368>
	case 0x1f: // '2'
		i++;
 80003d4:	d0a00017 	ldw	r2,-32768(gp)
 80003d8:	10800044 	addi	r2,r2,1
 80003dc:	d0a00015 	stw	r2,-32768(gp)
		str[i] = '2';
 80003e0:	d0e00017 	ldw	r3,-32768(gp)
 80003e4:	d0a6e104 	addi	r2,gp,-25724
 80003e8:	1885883a 	add	r2,r3,r2
 80003ec:	00c00c84 	movi	r3,50
 80003f0:	10c00005 	stb	r3,0(r2)
		break;
 80003f4:	00005a06 	br	8000560 <handle_keycode+0x368>
	case 0x20: // '3'
		i++;
 80003f8:	d0a00017 	ldw	r2,-32768(gp)
 80003fc:	10800044 	addi	r2,r2,1
 8000400:	d0a00015 	stw	r2,-32768(gp)
		str[i] = '3';
 8000404:	d0e00017 	ldw	r3,-32768(gp)
 8000408:	d0a6e104 	addi	r2,gp,-25724
 800040c:	1885883a 	add	r2,r3,r2
 8000410:	00c00cc4 	movi	r3,51
 8000414:	10c00005 	stb	r3,0(r2)
		break;
 8000418:	00005106 	br	8000560 <handle_keycode+0x368>
	case 0x21: // '4'
		i++;
 800041c:	d0a00017 	ldw	r2,-32768(gp)
 8000420:	10800044 	addi	r2,r2,1
 8000424:	d0a00015 	stw	r2,-32768(gp)
		str[i] = '4';
 8000428:	d0e00017 	ldw	r3,-32768(gp)
 800042c:	d0a6e104 	addi	r2,gp,-25724
 8000430:	1885883a 	add	r2,r3,r2
 8000434:	00c00d04 	movi	r3,52
 8000438:	10c00005 	stb	r3,0(r2)
		break;
 800043c:	00004806 	br	8000560 <handle_keycode+0x368>
	case 0x22: // '5'
		i++;
 8000440:	d0a00017 	ldw	r2,-32768(gp)
 8000444:	10800044 	addi	r2,r2,1
 8000448:	d0a00015 	stw	r2,-32768(gp)
		str[i] = '5';
 800044c:	d0e00017 	ldw	r3,-32768(gp)
 8000450:	d0a6e104 	addi	r2,gp,-25724
 8000454:	1885883a 	add	r2,r3,r2
 8000458:	00c00d44 	movi	r3,53
 800045c:	10c00005 	stb	r3,0(r2)
		break;
 8000460:	00003f06 	br	8000560 <handle_keycode+0x368>
	case 0x23: // '6'
		i++;
 8000464:	d0a00017 	ldw	r2,-32768(gp)
 8000468:	10800044 	addi	r2,r2,1
 800046c:	d0a00015 	stw	r2,-32768(gp)
		str[i] = '6';
 8000470:	d0e00017 	ldw	r3,-32768(gp)
 8000474:	d0a6e104 	addi	r2,gp,-25724
 8000478:	1885883a 	add	r2,r3,r2
 800047c:	00c00d84 	movi	r3,54
 8000480:	10c00005 	stb	r3,0(r2)
		break;
 8000484:	00003606 	br	8000560 <handle_keycode+0x368>
	case 0x24: // '7'
		i++;
 8000488:	d0a00017 	ldw	r2,-32768(gp)
 800048c:	10800044 	addi	r2,r2,1
 8000490:	d0a00015 	stw	r2,-32768(gp)
		str[i] = '7';
 8000494:	d0e00017 	ldw	r3,-32768(gp)
 8000498:	d0a6e104 	addi	r2,gp,-25724
 800049c:	1885883a 	add	r2,r3,r2
 80004a0:	00c00dc4 	movi	r3,55
 80004a4:	10c00005 	stb	r3,0(r2)
		break;
 80004a8:	00002d06 	br	8000560 <handle_keycode+0x368>
	case 0x25: // '8'
		i++;
 80004ac:	d0a00017 	ldw	r2,-32768(gp)
 80004b0:	10800044 	addi	r2,r2,1
 80004b4:	d0a00015 	stw	r2,-32768(gp)
		str[i] = '8';
 80004b8:	d0e00017 	ldw	r3,-32768(gp)
 80004bc:	d0a6e104 	addi	r2,gp,-25724
 80004c0:	1885883a 	add	r2,r3,r2
 80004c4:	00c00e04 	movi	r3,56
 80004c8:	10c00005 	stb	r3,0(r2)
		break;
 80004cc:	00002406 	br	8000560 <handle_keycode+0x368>
	case 0x26: // '9'
		i++;
 80004d0:	d0a00017 	ldw	r2,-32768(gp)
 80004d4:	10800044 	addi	r2,r2,1
 80004d8:	d0a00015 	stw	r2,-32768(gp)
		str[i] = '9';
 80004dc:	d0e00017 	ldw	r3,-32768(gp)
 80004e0:	d0a6e104 	addi	r2,gp,-25724
 80004e4:	1885883a 	add	r2,r3,r2
 80004e8:	00c00e44 	movi	r3,57
 80004ec:	10c00005 	stb	r3,0(r2)
		break;
 80004f0:	00001b06 	br	8000560 <handle_keycode+0x368>
	case 0x27: // '0'
		i++;
 80004f4:	d0a00017 	ldw	r2,-32768(gp)
 80004f8:	10800044 	addi	r2,r2,1
 80004fc:	d0a00015 	stw	r2,-32768(gp)
		str[i] = '0';
 8000500:	d0e00017 	ldw	r3,-32768(gp)
 8000504:	d0a6e104 	addi	r2,gp,-25724
 8000508:	1885883a 	add	r2,r3,r2
 800050c:	00c00c04 	movi	r3,48
 8000510:	10c00005 	stb	r3,0(r2)
		break;
 8000514:	00001206 	br	8000560 <handle_keycode+0x368>
	case 0x37: // '.'
		i++;
 8000518:	d0a00017 	ldw	r2,-32768(gp)
 800051c:	10800044 	addi	r2,r2,1
 8000520:	d0a00015 	stw	r2,-32768(gp)
		str[i] = '.';
 8000524:	d0e00017 	ldw	r3,-32768(gp)
 8000528:	d0a6e104 	addi	r2,gp,-25724
 800052c:	1885883a 	add	r2,r3,r2
 8000530:	00c00b84 	movi	r3,46
 8000534:	10c00005 	stb	r3,0(r2)
		break;
 8000538:	00000906 	br	8000560 <handle_keycode+0x368>
	case 0x2d: // '-'
		i++;
 800053c:	d0a00017 	ldw	r2,-32768(gp)
 8000540:	10800044 	addi	r2,r2,1
 8000544:	d0a00015 	stw	r2,-32768(gp)
		str[i] = '-';
 8000548:	d0e00017 	ldw	r3,-32768(gp)
 800054c:	d0a6e104 	addi	r2,gp,-25724
 8000550:	1885883a 	add	r2,r3,r2
 8000554:	00c00b44 	movi	r3,45
 8000558:	10c00005 	stb	r3,0(r2)
		break;
 800055c:	0001883a 	nop
	}
}
 8000560:	e037883a 	mov	sp,fp
 8000564:	dfc00117 	ldw	ra,4(sp)
 8000568:	df000017 	ldw	fp,0(sp)
 800056c:	dec00204 	addi	sp,sp,8
 8000570:	f800283a 	ret

08000574 <generate_frequencies>:
float frequencies[517] = {0};
int samples[8][517]; // initialize to 0db, aka 191
// Constants, in an attempt to speed up processing
static const float toSample = (float) 32 / 5;

void generate_frequencies() {
 8000574:	defffb04 	addi	sp,sp,-20
 8000578:	dfc00415 	stw	ra,16(sp)
 800057c:	df000315 	stw	fp,12(sp)
 8000580:	df000304 	addi	fp,sp,12
	printf("Generating the frequency range...\n");
 8000584:	010200b4 	movhi	r4,2050
 8000588:	213d7704 	addi	r4,r4,-2596
 800058c:	800d0e00 	call	800d0e0 <puts>
	*to_hw_sig = 7;
 8000590:	00881804 	movi	r2,8288
 8000594:	00c001c4 	movi	r3,7
 8000598:	10c00005 	stb	r3,0(r2)
	int i;
	const double log20 = log10(20);
 800059c:	00b50a34 	movhi	r2,54312
 80005a0:	10b7a004 	addi	r2,r2,-8576
 80005a4:	e0bffe15 	stw	r2,-8(fp)
 80005a8:	008ffd74 	movhi	r2,16373
 80005ac:	10b44104 	addi	r2,r2,-12028
 80005b0:	e0bfff15 	stw	r2,-4(fp)
	for (i = 0; i < 517; i++) {
 80005b4:	e03ffd15 	stw	zero,-12(fp)
 80005b8:	00002a06 	br	8000664 <generate_frequencies+0xf0>
		frequencies[i] = pow(10, ((float) i / 172) + log20);
 80005bc:	e13ffd17 	ldw	r4,-12(fp)
 80005c0:	800a45c0 	call	800a45c <__floatsisf>
 80005c4:	1007883a 	mov	r3,r2
 80005c8:	1809883a 	mov	r4,r3
 80005cc:	0150cb34 	movhi	r5,17196
 80005d0:	800a00c0 	call	800a00c <__divsf3>
 80005d4:	1007883a 	mov	r3,r2
 80005d8:	1805883a 	mov	r2,r3
 80005dc:	1009883a 	mov	r4,r2
 80005e0:	800cc840 	call	800cc84 <__extendsfdf2>
 80005e4:	100b883a 	mov	r5,r2
 80005e8:	180d883a 	mov	r6,r3
 80005ec:	2809883a 	mov	r4,r5
 80005f0:	300b883a 	mov	r5,r6
 80005f4:	e1bffe17 	ldw	r6,-8(fp)
 80005f8:	e1ffff17 	ldw	r7,-4(fp)
 80005fc:	800a5900 	call	800a590 <__adddf3>
 8000600:	1009883a 	mov	r4,r2
 8000604:	180b883a 	mov	r5,r3
 8000608:	2005883a 	mov	r2,r4
 800060c:	2807883a 	mov	r3,r5
 8000610:	0009883a 	mov	r4,zero
 8000614:	01500934 	movhi	r5,16420
 8000618:	100d883a 	mov	r6,r2
 800061c:	180f883a 	mov	r7,r3
 8000620:	80059780 	call	8005978 <pow>
 8000624:	100b883a 	mov	r5,r2
 8000628:	180d883a 	mov	r6,r3
 800062c:	2809883a 	mov	r4,r5
 8000630:	300b883a 	mov	r5,r6
 8000634:	800cd940 	call	800cd94 <__truncdfsf2>
 8000638:	1009883a 	mov	r4,r2
 800063c:	008200b4 	movhi	r2,2050
 8000640:	10900404 	addi	r2,r2,16400
 8000644:	e0fffd17 	ldw	r3,-12(fp)
 8000648:	18c7883a 	add	r3,r3,r3
 800064c:	18c7883a 	add	r3,r3,r3
 8000650:	10c5883a 	add	r2,r2,r3
 8000654:	11000015 	stw	r4,0(r2)
void generate_frequencies() {
	printf("Generating the frequency range...\n");
	*to_hw_sig = 7;
	int i;
	const double log20 = log10(20);
	for (i = 0; i < 517; i++) {
 8000658:	e0bffd17 	ldw	r2,-12(fp)
 800065c:	10800044 	addi	r2,r2,1
 8000660:	e0bffd15 	stw	r2,-12(fp)
 8000664:	e0bffd17 	ldw	r2,-12(fp)
 8000668:	10808150 	cmplti	r2,r2,517
 800066c:	103fd31e 	bne	r2,zero,80005bc <__alt_data_end+0xfc0005bc>
		frequencies[i] = pow(10, ((float) i / 172) + log20);
	}
}
 8000670:	e037883a 	mov	sp,fp
 8000674:	dfc00117 	ldw	ra,4(sp)
 8000678:	df000017 	ldw	fp,0(sp)
 800067c:	dec00204 	addi	sp,sp,8
 8000680:	f800283a 	ret

08000684 <sm_init>:

// return 1 if anything was done, 0 otherwise
int sm_init() {
 8000684:	defffe04 	addi	sp,sp,-8
 8000688:	dfc00115 	stw	ra,4(sp)
 800068c:	df000015 	stw	fp,0(sp)
 8000690:	d839883a 	mov	fp,sp
	if (state == 0) {
 8000694:	d0a6e317 	ldw	r2,-25716(gp)
 8000698:	10000f1e 	bne	r2,zero,80006d8 <sm_init+0x54>
		printf("Select biquad #1-8 then press [ENTER]\n");
 800069c:	010200b4 	movhi	r4,2050
 80006a0:	213d8004 	addi	r4,r4,-2560
 80006a4:	800d0e00 	call	800d0e0 <puts>
		biquad = 0;
 80006a8:	d026f215 	stw	zero,-25656(gp)
		*to_hw_sig =  8;
 80006ac:	00881804 	movi	r2,8288
 80006b0:	00c00204 	movi	r3,8
 80006b4:	10c00005 	stb	r3,0(r2)
		F = 0;
 80006b8:	d0270315 	stw	zero,-25588(gp)
		Q = 0;
 80006bc:	d026ea15 	stw	zero,-25688(gp)
 80006c0:	d0a6eb04 	addi	r2,gp,-25684
 80006c4:	10000015 	stw	zero,0(r2)
		state = 1;
 80006c8:	00800044 	movi	r2,1
 80006cc:	d0a6e315 	stw	r2,-25716(gp)
		return 1;
 80006d0:	00800044 	movi	r2,1
 80006d4:	00000106 	br	80006dc <sm_init+0x58>
	}
	return 0;
 80006d8:	0005883a 	mov	r2,zero
}
 80006dc:	e037883a 	mov	sp,fp
 80006e0:	dfc00117 	ldw	ra,4(sp)
 80006e4:	df000017 	ldw	fp,0(sp)
 80006e8:	dec00204 	addi	sp,sp,8
 80006ec:	f800283a 	ret

080006f0 <sm_process_str>:

void sm_process_str(char* str) {
 80006f0:	defffd04 	addi	sp,sp,-12
 80006f4:	dfc00215 	stw	ra,8(sp)
 80006f8:	df000115 	stw	fp,4(sp)
 80006fc:	df000104 	addi	fp,sp,4
 8000700:	e13fff15 	stw	r4,-4(fp)
	switch (state) {
 8000704:	d0a6e317 	ldw	r2,-25716(gp)
 8000708:	10c001a8 	cmpgeui	r3,r2,6
 800070c:	1800c51e 	bne	r3,zero,8000a24 <sm_process_str+0x334>
 8000710:	100690ba 	slli	r3,r2,2
 8000714:	00820034 	movhi	r2,2048
 8000718:	1081ca04 	addi	r2,r2,1832
 800071c:	1885883a 	add	r2,r3,r2
 8000720:	10800017 	ldw	r2,0(r2)
 8000724:	1000683a 	jmp	r2
 8000728:	08000a24 	muli	zero,at,40
 800072c:	08000740 	call	800074 <__alt_mem_onchip_memory2_0+0x800074>
 8000730:	080007d8 	cmpnei	zero,at,31
 8000734:	08000840 	call	800084 <__alt_mem_onchip_memory2_0+0x800084>
 8000738:	080008ac 	andhi	zero,at,34
 800073c:	08000988 	cmpgei	zero,at,38
	case 1:
		int_in = atoi(str);
 8000740:	e13fff17 	ldw	r4,-4(fp)
 8000744:	800cf980 	call	800cf98 <atoi>
 8000748:	d0a6e915 	stw	r2,-25692(gp)
		if (int_in >= 1 && int_in <= 9) {
 800074c:	d0a6e917 	ldw	r2,-25692(gp)
 8000750:	00801d0e 	bge	zero,r2,80007c8 <sm_process_str+0xd8>
 8000754:	d0a6e917 	ldw	r2,-25692(gp)
 8000758:	10800288 	cmpgei	r2,r2,10
 800075c:	10001a1e 	bne	r2,zero,80007c8 <sm_process_str+0xd8>
			biquad = int_in;
 8000760:	d0a6e917 	ldw	r2,-25692(gp)
 8000764:	d0a6f215 	stw	r2,-25656(gp)
			printf("Pick the type of filter then press [ENTER]\n");
 8000768:	010200b4 	movhi	r4,2050
 800076c:	213d8a04 	addi	r4,r4,-2520
 8000770:	800d0e00 	call	800d0e0 <puts>
			printf("1: Peak EQ\n");
 8000774:	010200b4 	movhi	r4,2050
 8000778:	213d9504 	addi	r4,r4,-2476
 800077c:	800d0e00 	call	800d0e0 <puts>
			printf("2: Low Shelf\n");
 8000780:	010200b4 	movhi	r4,2050
 8000784:	213d9804 	addi	r4,r4,-2464
 8000788:	800d0e00 	call	800d0e0 <puts>
			printf("3: High Shelf\n");
 800078c:	010200b4 	movhi	r4,2050
 8000790:	213d9c04 	addi	r4,r4,-2448
 8000794:	800d0e00 	call	800d0e0 <puts>
			printf("4: Low Pass\n");
 8000798:	010200b4 	movhi	r4,2050
 800079c:	213da004 	addi	r4,r4,-2432
 80007a0:	800d0e00 	call	800d0e0 <puts>
			printf("5: High Pass\n");
 80007a4:	010200b4 	movhi	r4,2050
 80007a8:	213da304 	addi	r4,r4,-2420
 80007ac:	800d0e00 	call	800d0e0 <puts>
			*to_hw_sig = 15;
 80007b0:	00881804 	movi	r2,8288
 80007b4:	00c003c4 	movi	r3,15
 80007b8:	10c00005 	stb	r3,0(r2)
			state = 2;
 80007bc:	00800084 	movi	r2,2
 80007c0:	d0a6e315 	stw	r2,-25716(gp)
		} else {
			printf("Please select a biquad in the range 1 to 8 then press [ENTER]\n");
		}
		break;
 80007c4:	00009706 	br	8000a24 <sm_process_str+0x334>
			printf("4: Low Pass\n");
			printf("5: High Pass\n");
			*to_hw_sig = 15;
			state = 2;
		} else {
			printf("Please select a biquad in the range 1 to 8 then press [ENTER]\n");
 80007c8:	010200b4 	movhi	r4,2050
 80007cc:	213da704 	addi	r4,r4,-2404
 80007d0:	800d0e00 	call	800d0e0 <puts>
		}
		break;
 80007d4:	00009306 	br	8000a24 <sm_process_str+0x334>
	case 2:
		int_in = atoi(str);
 80007d8:	e13fff17 	ldw	r4,-4(fp)
 80007dc:	800cf980 	call	800cf98 <atoi>
 80007e0:	d0a6e915 	stw	r2,-25692(gp)
		if (int_in >= 1 && int_in <= 5) {
 80007e4:	d0a6e917 	ldw	r2,-25692(gp)
 80007e8:	00800e0e 	bge	zero,r2,8000824 <sm_process_str+0x134>
 80007ec:	d0a6e917 	ldw	r2,-25692(gp)
 80007f0:	10800188 	cmpgei	r2,r2,6
 80007f4:	10000b1e 	bne	r2,zero,8000824 <sm_process_str+0x134>
			type = int_in;
 80007f8:	d0a6e917 	ldw	r2,-25692(gp)
 80007fc:	d0a6e615 	stw	r2,-25704(gp)
			printf("Enter the Center Frequency (F) then press [ENTER]\n");
 8000800:	010200b4 	movhi	r4,2050
 8000804:	213db704 	addi	r4,r4,-2340
 8000808:	800d0e00 	call	800d0e0 <puts>
			*to_hw_sig = 14;
 800080c:	00881804 	movi	r2,8288
 8000810:	00c00384 	movi	r3,14
 8000814:	10c00005 	stb	r3,0(r2)
			state = 3;
 8000818:	008000c4 	movi	r2,3
 800081c:	d0a6e315 	stw	r2,-25716(gp)
		} else {
			printf("Please select a filter in the range 1 to 5 then press [ENTER]\n");
			*to_hw_sig = 13;
		}
		break;
 8000820:	00008006 	br	8000a24 <sm_process_str+0x334>
			type = int_in;
			printf("Enter the Center Frequency (F) then press [ENTER]\n");
			*to_hw_sig = 14;
			state = 3;
		} else {
			printf("Please select a filter in the range 1 to 5 then press [ENTER]\n");
 8000824:	010200b4 	movhi	r4,2050
 8000828:	213dc404 	addi	r4,r4,-2288
 800082c:	800d0e00 	call	800d0e0 <puts>
			*to_hw_sig = 13;
 8000830:	00881804 	movi	r2,8288
 8000834:	00c00344 	movi	r3,13
 8000838:	10c00005 	stb	r3,0(r2)
		}
		break;
 800083c:	00007906 	br	8000a24 <sm_process_str+0x334>
	case 3:
		int_in = atoi(str);
 8000840:	e13fff17 	ldw	r4,-4(fp)
 8000844:	800cf980 	call	800cf98 <atoi>
 8000848:	d0a6e915 	stw	r2,-25692(gp)
		if (int_in >= 20 && int_in <= 20000) {
 800084c:	d0a6e917 	ldw	r2,-25692(gp)
 8000850:	10800510 	cmplti	r2,r2,20
 8000854:	10000e1e 	bne	r2,zero,8000890 <sm_process_str+0x1a0>
 8000858:	d0a6e917 	ldw	r2,-25692(gp)
 800085c:	10938848 	cmpgei	r2,r2,20001
 8000860:	10000b1e 	bne	r2,zero,8000890 <sm_process_str+0x1a0>
			F = int_in;
 8000864:	d0a6e917 	ldw	r2,-25692(gp)
 8000868:	d0a70315 	stw	r2,-25588(gp)
			printf("Input the Q factor then press [ENTER]\n");
 800086c:	010200b4 	movhi	r4,2050
 8000870:	213dd404 	addi	r4,r4,-2224
 8000874:	800d0e00 	call	800d0e0 <puts>
			*to_hw_sig = 12;
 8000878:	00881804 	movi	r2,8288
 800087c:	00c00304 	movi	r3,12
 8000880:	10c00005 	stb	r3,0(r2)
			state = 4;
 8000884:	00800104 	movi	r2,4
 8000888:	d0a6e315 	stw	r2,-25716(gp)
		} else {
			printf("Please select a center frequency between 20 and 20,000 then press [ENTER]\n");
			*to_hw_sig = 11;
		}
		break;
 800088c:	00006506 	br	8000a24 <sm_process_str+0x334>
			F = int_in;
			printf("Input the Q factor then press [ENTER]\n");
			*to_hw_sig = 12;
			state = 4;
		} else {
			printf("Please select a center frequency between 20 and 20,000 then press [ENTER]\n");
 8000890:	010200b4 	movhi	r4,2050
 8000894:	213dde04 	addi	r4,r4,-2184
 8000898:	800d0e00 	call	800d0e0 <puts>
			*to_hw_sig = 11;
 800089c:	00881804 	movi	r2,8288
 80008a0:	00c002c4 	movi	r3,11
 80008a4:	10c00005 	stb	r3,0(r2)
		}
		break;
 80008a8:	00005e06 	br	8000a24 <sm_process_str+0x334>
	case 4:
		double_in = atof(str);
 80008ac:	e13fff17 	ldw	r4,-4(fp)
 80008b0:	800cf900 	call	800cf90 <atof>
 80008b4:	1009883a 	mov	r4,r2
 80008b8:	180b883a 	mov	r5,r3
 80008bc:	d126f715 	stw	r4,-25636(gp)
 80008c0:	d0a6f804 	addi	r2,gp,-25632
 80008c4:	11400015 	stw	r5,0(r2)
		if (double_in >= 0 && double_in < 20) {
 80008c8:	d0a6f717 	ldw	r2,-25636(gp)
 80008cc:	d126f804 	addi	r4,gp,-25632
 80008d0:	20c00017 	ldw	r3,0(r4)
 80008d4:	1009883a 	mov	r4,r2
 80008d8:	180b883a 	mov	r5,r3
 80008dc:	000d883a 	mov	r6,zero
 80008e0:	000f883a 	mov	r7,zero
 80008e4:	800b8300 	call	800b830 <__gedf2>
 80008e8:	10001f16 	blt	r2,zero,8000968 <sm_process_str+0x278>
 80008ec:	d0a6f717 	ldw	r2,-25636(gp)
 80008f0:	d126f804 	addi	r4,gp,-25632
 80008f4:	20c00017 	ldw	r3,0(r4)
 80008f8:	1009883a 	mov	r4,r2
 80008fc:	180b883a 	mov	r5,r3
 8000900:	000d883a 	mov	r6,zero
 8000904:	01d00d34 	movhi	r7,16436
 8000908:	800b9100 	call	800b910 <__ledf2>
 800090c:	1000160e 	bge	r2,zero,8000968 <sm_process_str+0x278>
			Q = double_in;
 8000910:	d0a6f717 	ldw	r2,-25636(gp)
 8000914:	d126f804 	addi	r4,gp,-25632
 8000918:	20c00017 	ldw	r3,0(r4)
 800091c:	d0a6ea15 	stw	r2,-25688(gp)
 8000920:	d126eb04 	addi	r4,gp,-25684
 8000924:	20c00015 	stw	r3,0(r4)
			if (type >= 1 && type <= 3) { // these filters need a gain
 8000928:	d0a6e617 	ldw	r2,-25704(gp)
 800092c:	00800c0e 	bge	zero,r2,8000960 <sm_process_str+0x270>
 8000930:	d0a6e617 	ldw	r2,-25704(gp)
 8000934:	10800108 	cmpgei	r2,r2,4
 8000938:	1000091e 	bne	r2,zero,8000960 <sm_process_str+0x270>
				printf("Enter the gain of the filter then press [ENTER]\n");
 800093c:	010200b4 	movhi	r4,2050
 8000940:	213df104 	addi	r4,r4,-2108
 8000944:	800d0e00 	call	800d0e0 <puts>
				*to_hw_sig = 10;
 8000948:	00881804 	movi	r2,8288
 800094c:	00c00284 	movi	r3,10
 8000950:	10c00005 	stb	r3,0(r2)
				state = 5;
 8000954:	00800144 	movi	r2,5
 8000958:	d0a6e315 	stw	r2,-25716(gp)
		break;
	case 4:
		double_in = atof(str);
		if (double_in >= 0 && double_in < 20) {
			Q = double_in;
			if (type >= 1 && type <= 3) { // these filters need a gain
 800095c:	00000906 	br	8000984 <sm_process_str+0x294>
				printf("Enter the gain of the filter then press [ENTER]\n");
				*to_hw_sig = 10;
				state = 5;
			} else {
				process_filter();
 8000960:	8000a380 	call	8000a38 <process_filter>
		break;
	case 4:
		double_in = atof(str);
		if (double_in >= 0 && double_in < 20) {
			Q = double_in;
			if (type >= 1 && type <= 3) { // these filters need a gain
 8000964:	00000706 	br	8000984 <sm_process_str+0x294>
				state = 5;
			} else {
				process_filter();
			}
		} else {
			printf("Please select a non-negative Q factor less than 20 then press [ENTER]\n");
 8000968:	010200b4 	movhi	r4,2050
 800096c:	213dfd04 	addi	r4,r4,-2060
 8000970:	800d0e00 	call	800d0e0 <puts>
			*to_hw_sig = 9;
 8000974:	00881804 	movi	r2,8288
 8000978:	00c00244 	movi	r3,9
 800097c:	10c00005 	stb	r3,0(r2)
		}
		break;
 8000980:	00002806 	br	8000a24 <sm_process_str+0x334>
 8000984:	00002706 	br	8000a24 <sm_process_str+0x334>
	case 5:
		double_in = atof(str);
 8000988:	e13fff17 	ldw	r4,-4(fp)
 800098c:	800cf900 	call	800cf90 <atof>
 8000990:	1009883a 	mov	r4,r2
 8000994:	180b883a 	mov	r5,r3
 8000998:	d126f715 	stw	r4,-25636(gp)
 800099c:	d0a6f804 	addi	r2,gp,-25632
 80009a0:	11400015 	stw	r5,0(r2)
		if (double_in >= -20 && double_in <= 20) {
 80009a4:	d0a6f717 	ldw	r2,-25636(gp)
 80009a8:	d126f804 	addi	r4,gp,-25632
 80009ac:	20c00017 	ldw	r3,0(r4)
 80009b0:	1009883a 	mov	r4,r2
 80009b4:	180b883a 	mov	r5,r3
 80009b8:	000d883a 	mov	r6,zero
 80009bc:	01f00d34 	movhi	r7,49204
 80009c0:	800b8300 	call	800b830 <__gedf2>
 80009c4:	10001116 	blt	r2,zero,8000a0c <sm_process_str+0x31c>
 80009c8:	d0a6f717 	ldw	r2,-25636(gp)
 80009cc:	d126f804 	addi	r4,gp,-25632
 80009d0:	20c00017 	ldw	r3,0(r4)
 80009d4:	1009883a 	mov	r4,r2
 80009d8:	180b883a 	mov	r5,r3
 80009dc:	000d883a 	mov	r6,zero
 80009e0:	01d00d34 	movhi	r7,16436
 80009e4:	800b9100 	call	800b910 <__ledf2>
 80009e8:	00800816 	blt	zero,r2,8000a0c <sm_process_str+0x31c>
			G = double_in;
 80009ec:	d0a6f717 	ldw	r2,-25636(gp)
 80009f0:	d126f804 	addi	r4,gp,-25632
 80009f4:	20c00017 	ldw	r3,0(r4)
 80009f8:	d0a6f315 	stw	r2,-25652(gp)
 80009fc:	d126f404 	addi	r4,gp,-25648
 8000a00:	20c00015 	stw	r3,0(r4)
			process_filter();
 8000a04:	8000a380 	call	8000a38 <process_filter>
 8000a08:	00000606 	br	8000a24 <sm_process_str+0x334>
		} else {
			printf("Please select a gain in the range -20db to 20db then press [ENTER]\n");
 8000a0c:	010200b4 	movhi	r4,2050
 8000a10:	213e0f04 	addi	r4,r4,-1988
 8000a14:	800d0e00 	call	800d0e0 <puts>
			*to_hw_sig = 8;
 8000a18:	00881804 	movi	r2,8288
 8000a1c:	00c00204 	movi	r3,8
 8000a20:	10c00005 	stb	r3,0(r2)
		}
	}
}
 8000a24:	e037883a 	mov	sp,fp
 8000a28:	dfc00117 	ldw	ra,4(sp)
 8000a2c:	df000017 	ldw	fp,0(sp)
 8000a30:	dec00204 	addi	sp,sp,8
 8000a34:	f800283a 	ret

08000a38 <process_filter>:

void process_filter() {
 8000a38:	deffcb04 	addi	sp,sp,-212
 8000a3c:	dfc03415 	stw	ra,208(sp)
 8000a40:	df003315 	stw	fp,204(sp)
 8000a44:	ddc03215 	stw	r23,200(sp)
 8000a48:	dd803115 	stw	r22,196(sp)
 8000a4c:	dd403015 	stw	r21,192(sp)
 8000a50:	dd002f15 	stw	r20,188(sp)
 8000a54:	dcc02e15 	stw	r19,184(sp)
 8000a58:	dc802d15 	stw	r18,180(sp)
 8000a5c:	dc402c15 	stw	r17,176(sp)
 8000a60:	dc002b15 	stw	r16,172(sp)
 8000a64:	df003304 	addi	fp,sp,204
	printf("Processing filter... \n");
 8000a68:	010200b4 	movhi	r4,2050
 8000a6c:	213e2004 	addi	r4,r4,-1920
 8000a70:	800d0e00 	call	800d0e0 <puts>
	printf("Biquad %d, Type: %d, F: %d, Q: %f, G: %f\n", biquad, type, F, Q, G);
 8000a74:	d266f217 	ldw	r9,-25656(gp)
 8000a78:	d226e617 	ldw	r8,-25704(gp)
 8000a7c:	d1e70317 	ldw	r7,-25588(gp)
 8000a80:	d126ea17 	ldw	r4,-25688(gp)
 8000a84:	d0a6eb04 	addi	r2,gp,-25684
 8000a88:	11400017 	ldw	r5,0(r2)
 8000a8c:	d0a6f317 	ldw	r2,-25652(gp)
 8000a90:	d1a6f404 	addi	r6,gp,-25648
 8000a94:	30c00017 	ldw	r3,0(r6)
 8000a98:	d9000015 	stw	r4,0(sp)
 8000a9c:	d9400115 	stw	r5,4(sp)
 8000aa0:	d8800215 	stw	r2,8(sp)
 8000aa4:	d8c00315 	stw	r3,12(sp)
 8000aa8:	010200b4 	movhi	r4,2050
 8000aac:	213e2604 	addi	r4,r4,-1896
 8000ab0:	480b883a 	mov	r5,r9
 8000ab4:	400d883a 	mov	r6,r8
 8000ab8:	800cfec0 	call	800cfec <printf>

	A = pow(10, G / 40);
 8000abc:	d0a6f317 	ldw	r2,-25652(gp)
 8000ac0:	d126f404 	addi	r4,gp,-25648
 8000ac4:	20c00017 	ldw	r3,0(r4)
 8000ac8:	1009883a 	mov	r4,r2
 8000acc:	180b883a 	mov	r5,r3
 8000ad0:	000d883a 	mov	r6,zero
 8000ad4:	01d01134 	movhi	r7,16452
 8000ad8:	800ae2c0 	call	800ae2c <__divdf3>
 8000adc:	1009883a 	mov	r4,r2
 8000ae0:	180b883a 	mov	r5,r3
 8000ae4:	2005883a 	mov	r2,r4
 8000ae8:	2807883a 	mov	r3,r5
 8000aec:	0009883a 	mov	r4,zero
 8000af0:	01500934 	movhi	r5,16420
 8000af4:	100d883a 	mov	r6,r2
 8000af8:	180f883a 	mov	r7,r3
 8000afc:	80059780 	call	8005978 <pow>
 8000b00:	1009883a 	mov	r4,r2
 8000b04:	180b883a 	mov	r5,r3
 8000b08:	d126e715 	stw	r4,-25700(gp)
 8000b0c:	d0a6e804 	addi	r2,gp,-25696
 8000b10:	11400015 	stw	r5,0(r2)
	w0 = 2*M_PI*((double)F / Fs);
 8000b14:	d0a70317 	ldw	r2,-25588(gp)
 8000b18:	1009883a 	mov	r4,r2
 8000b1c:	800cbb40 	call	800cbb4 <__floatsidf>
 8000b20:	100b883a 	mov	r5,r2
 8000b24:	180d883a 	mov	r6,r3
 8000b28:	d0a00117 	ldw	r2,-32764(gp)
 8000b2c:	d1200204 	addi	r4,gp,-32760
 8000b30:	20c00017 	ldw	r3,0(r4)
 8000b34:	2809883a 	mov	r4,r5
 8000b38:	300b883a 	mov	r5,r6
 8000b3c:	100d883a 	mov	r6,r2
 8000b40:	180f883a 	mov	r7,r3
 8000b44:	800ae2c0 	call	800ae2c <__divdf3>
 8000b48:	1009883a 	mov	r4,r2
 8000b4c:	180b883a 	mov	r5,r3
 8000b50:	2005883a 	mov	r2,r4
 8000b54:	2807883a 	mov	r3,r5
 8000b58:	1009883a 	mov	r4,r2
 8000b5c:	180b883a 	mov	r5,r3
 8000b60:	01951134 	movhi	r6,21572
 8000b64:	318b4604 	addi	r6,r6,11544
 8000b68:	01d00674 	movhi	r7,16409
 8000b6c:	39c87ec4 	addi	r7,r7,8699
 8000b70:	800b9f00 	call	800b9f0 <__muldf3>
 8000b74:	1009883a 	mov	r4,r2
 8000b78:	180b883a 	mov	r5,r3
 8000b7c:	2005883a 	mov	r2,r4
 8000b80:	2807883a 	mov	r3,r5
 8000b84:	d0a6f015 	stw	r2,-25664(gp)
 8000b88:	d126f104 	addi	r4,gp,-25660
 8000b8c:	20c00015 	stw	r3,0(r4)
	alpha = sin(w0)/(2 * Q);
 8000b90:	d0a6f017 	ldw	r2,-25664(gp)
 8000b94:	d126f104 	addi	r4,gp,-25660
 8000b98:	20c00017 	ldw	r3,0(r4)
 8000b9c:	1009883a 	mov	r4,r2
 8000ba0:	180b883a 	mov	r5,r3
 8000ba4:	80056ec0 	call	80056ec <sin>
 8000ba8:	e0bfe415 	stw	r2,-112(fp)
 8000bac:	e0ffe515 	stw	r3,-108(fp)
 8000bb0:	d0a6ea17 	ldw	r2,-25688(gp)
 8000bb4:	d126eb04 	addi	r4,gp,-25684
 8000bb8:	20c00017 	ldw	r3,0(r4)
 8000bbc:	1009883a 	mov	r4,r2
 8000bc0:	180b883a 	mov	r5,r3
 8000bc4:	100d883a 	mov	r6,r2
 8000bc8:	180f883a 	mov	r7,r3
 8000bcc:	800a5900 	call	800a590 <__adddf3>
 8000bd0:	1009883a 	mov	r4,r2
 8000bd4:	180b883a 	mov	r5,r3
 8000bd8:	2005883a 	mov	r2,r4
 8000bdc:	2807883a 	mov	r3,r5
 8000be0:	e13fe417 	ldw	r4,-112(fp)
 8000be4:	e17fe517 	ldw	r5,-108(fp)
 8000be8:	100d883a 	mov	r6,r2
 8000bec:	180f883a 	mov	r7,r3
 8000bf0:	800ae2c0 	call	800ae2c <__divdf3>
 8000bf4:	1009883a 	mov	r4,r2
 8000bf8:	180b883a 	mov	r5,r3
 8000bfc:	2005883a 	mov	r2,r4
 8000c00:	2807883a 	mov	r3,r5
 8000c04:	d0a70115 	stw	r2,-25596(gp)
 8000c08:	d1270204 	addi	r4,gp,-25592
 8000c0c:	20c00015 	stw	r3,0(r4)
	if (type == 1) // PeakEQ
 8000c10:	d0a6e617 	ldw	r2,-25704(gp)
 8000c14:	10800058 	cmpnei	r2,r2,1
 8000c18:	10001c1e 	bne	r2,zero,8000c8c <process_filter+0x254>
		a0 = 1 + (alpha / A);
 8000c1c:	d1670117 	ldw	r5,-25596(gp)
 8000c20:	d0a70204 	addi	r2,gp,-25592
 8000c24:	11800017 	ldw	r6,0(r2)
 8000c28:	d0a6e717 	ldw	r2,-25700(gp)
 8000c2c:	d126e804 	addi	r4,gp,-25696
 8000c30:	20c00017 	ldw	r3,0(r4)
 8000c34:	2809883a 	mov	r4,r5
 8000c38:	300b883a 	mov	r5,r6
 8000c3c:	100d883a 	mov	r6,r2
 8000c40:	180f883a 	mov	r7,r3
 8000c44:	800ae2c0 	call	800ae2c <__divdf3>
 8000c48:	1009883a 	mov	r4,r2
 8000c4c:	180b883a 	mov	r5,r3
 8000c50:	2005883a 	mov	r2,r4
 8000c54:	2807883a 	mov	r3,r5
 8000c58:	1009883a 	mov	r4,r2
 8000c5c:	180b883a 	mov	r5,r3
 8000c60:	000d883a 	mov	r6,zero
 8000c64:	01cffc34 	movhi	r7,16368
 8000c68:	800a5900 	call	800a590 <__adddf3>
 8000c6c:	1009883a 	mov	r4,r2
 8000c70:	180b883a 	mov	r5,r3
 8000c74:	2005883a 	mov	r2,r4
 8000c78:	2807883a 	mov	r3,r5
 8000c7c:	d0a6ff15 	stw	r2,-25604(gp)
 8000c80:	d1270004 	addi	r4,gp,-25600
 8000c84:	20c00015 	stw	r3,0(r4)
 8000c88:	0000d306 	br	8000fd8 <process_filter+0x5a0>
	else if (type == 2) // Low Shelf
 8000c8c:	d0a6e617 	ldw	r2,-25704(gp)
 8000c90:	10800098 	cmpnei	r2,r2,2
 8000c94:	10005c1e 	bne	r2,zero,8000e08 <process_filter+0x3d0>
		a0 = (A + 1) + ((A - 1) * cos(w0)) + (2 * sqrt(A) * alpha);
 8000c98:	d0a6e717 	ldw	r2,-25700(gp)
 8000c9c:	d126e804 	addi	r4,gp,-25696
 8000ca0:	20c00017 	ldw	r3,0(r4)
 8000ca4:	1009883a 	mov	r4,r2
 8000ca8:	180b883a 	mov	r5,r3
 8000cac:	000d883a 	mov	r6,zero
 8000cb0:	01cffc34 	movhi	r7,16368
 8000cb4:	800a5900 	call	800a590 <__adddf3>
 8000cb8:	1009883a 	mov	r4,r2
 8000cbc:	180b883a 	mov	r5,r3
 8000cc0:	e13fe615 	stw	r4,-104(fp)
 8000cc4:	e17fe715 	stw	r5,-100(fp)
 8000cc8:	d0a6e717 	ldw	r2,-25700(gp)
 8000ccc:	d126e804 	addi	r4,gp,-25696
 8000cd0:	20c00017 	ldw	r3,0(r4)
 8000cd4:	1009883a 	mov	r4,r2
 8000cd8:	180b883a 	mov	r5,r3
 8000cdc:	000d883a 	mov	r6,zero
 8000ce0:	01cffc34 	movhi	r7,16368
 8000ce4:	800c25c0 	call	800c25c <__subdf3>
 8000ce8:	1009883a 	mov	r4,r2
 8000cec:	180b883a 	mov	r5,r3
 8000cf0:	e13fe815 	stw	r4,-96(fp)
 8000cf4:	e17fe915 	stw	r5,-92(fp)
 8000cf8:	d0a6f017 	ldw	r2,-25664(gp)
 8000cfc:	d126f104 	addi	r4,gp,-25660
 8000d00:	20c00017 	ldw	r3,0(r4)
 8000d04:	1009883a 	mov	r4,r2
 8000d08:	180b883a 	mov	r5,r3
 8000d0c:	80054fc0 	call	80054fc <cos>
 8000d10:	100f883a 	mov	r7,r2
 8000d14:	1811883a 	mov	r8,r3
 8000d18:	e13fe817 	ldw	r4,-96(fp)
 8000d1c:	e17fe917 	ldw	r5,-92(fp)
 8000d20:	380d883a 	mov	r6,r7
 8000d24:	400f883a 	mov	r7,r8
 8000d28:	800b9f00 	call	800b9f0 <__muldf3>
 8000d2c:	1009883a 	mov	r4,r2
 8000d30:	180b883a 	mov	r5,r3
 8000d34:	2005883a 	mov	r2,r4
 8000d38:	2807883a 	mov	r3,r5
 8000d3c:	e13fe617 	ldw	r4,-104(fp)
 8000d40:	e17fe717 	ldw	r5,-100(fp)
 8000d44:	100d883a 	mov	r6,r2
 8000d48:	180f883a 	mov	r7,r3
 8000d4c:	800a5900 	call	800a590 <__adddf3>
 8000d50:	1009883a 	mov	r4,r2
 8000d54:	180b883a 	mov	r5,r3
 8000d58:	e13fea15 	stw	r4,-88(fp)
 8000d5c:	e17feb15 	stw	r5,-84(fp)
 8000d60:	d0a6e717 	ldw	r2,-25700(gp)
 8000d64:	d126e804 	addi	r4,gp,-25696
 8000d68:	20c00017 	ldw	r3,0(r4)
 8000d6c:	1009883a 	mov	r4,r2
 8000d70:	180b883a 	mov	r5,r3
 8000d74:	8005e1c0 	call	8005e1c <sqrt>
 8000d78:	100f883a 	mov	r7,r2
 8000d7c:	1811883a 	mov	r8,r3
 8000d80:	3809883a 	mov	r4,r7
 8000d84:	400b883a 	mov	r5,r8
 8000d88:	380d883a 	mov	r6,r7
 8000d8c:	400f883a 	mov	r7,r8
 8000d90:	800a5900 	call	800a590 <__adddf3>
 8000d94:	100f883a 	mov	r7,r2
 8000d98:	1811883a 	mov	r8,r3
 8000d9c:	380b883a 	mov	r5,r7
 8000da0:	400d883a 	mov	r6,r8
 8000da4:	d0a70117 	ldw	r2,-25596(gp)
 8000da8:	d1270204 	addi	r4,gp,-25592
 8000dac:	20c00017 	ldw	r3,0(r4)
 8000db0:	2809883a 	mov	r4,r5
 8000db4:	300b883a 	mov	r5,r6
 8000db8:	100d883a 	mov	r6,r2
 8000dbc:	180f883a 	mov	r7,r3
 8000dc0:	800b9f00 	call	800b9f0 <__muldf3>
 8000dc4:	1009883a 	mov	r4,r2
 8000dc8:	180b883a 	mov	r5,r3
 8000dcc:	2005883a 	mov	r2,r4
 8000dd0:	2807883a 	mov	r3,r5
 8000dd4:	e13fea17 	ldw	r4,-88(fp)
 8000dd8:	e17feb17 	ldw	r5,-84(fp)
 8000ddc:	100d883a 	mov	r6,r2
 8000de0:	180f883a 	mov	r7,r3
 8000de4:	800a5900 	call	800a590 <__adddf3>
 8000de8:	1009883a 	mov	r4,r2
 8000dec:	180b883a 	mov	r5,r3
 8000df0:	2005883a 	mov	r2,r4
 8000df4:	2807883a 	mov	r3,r5
 8000df8:	d0a6ff15 	stw	r2,-25604(gp)
 8000dfc:	d1270004 	addi	r4,gp,-25600
 8000e00:	20c00015 	stw	r3,0(r4)
 8000e04:	00007406 	br	8000fd8 <process_filter+0x5a0>
	else if (type == 3) // High Shelf
 8000e08:	d0a6e617 	ldw	r2,-25704(gp)
 8000e0c:	108000d8 	cmpnei	r2,r2,3
 8000e10:	10005c1e 	bne	r2,zero,8000f84 <process_filter+0x54c>
		a0 = (A + 1) - ((A - 1) * cos(w0)) + (2 * sqrt(A) * alpha);
 8000e14:	d0a6e717 	ldw	r2,-25700(gp)
 8000e18:	d126e804 	addi	r4,gp,-25696
 8000e1c:	20c00017 	ldw	r3,0(r4)
 8000e20:	1009883a 	mov	r4,r2
 8000e24:	180b883a 	mov	r5,r3
 8000e28:	000d883a 	mov	r6,zero
 8000e2c:	01cffc34 	movhi	r7,16368
 8000e30:	800a5900 	call	800a590 <__adddf3>
 8000e34:	1009883a 	mov	r4,r2
 8000e38:	180b883a 	mov	r5,r3
 8000e3c:	e13fec15 	stw	r4,-80(fp)
 8000e40:	e17fed15 	stw	r5,-76(fp)
 8000e44:	d0a6e717 	ldw	r2,-25700(gp)
 8000e48:	d126e804 	addi	r4,gp,-25696
 8000e4c:	20c00017 	ldw	r3,0(r4)
 8000e50:	1009883a 	mov	r4,r2
 8000e54:	180b883a 	mov	r5,r3
 8000e58:	000d883a 	mov	r6,zero
 8000e5c:	01cffc34 	movhi	r7,16368
 8000e60:	800c25c0 	call	800c25c <__subdf3>
 8000e64:	1009883a 	mov	r4,r2
 8000e68:	180b883a 	mov	r5,r3
 8000e6c:	e13fee15 	stw	r4,-72(fp)
 8000e70:	e17fef15 	stw	r5,-68(fp)
 8000e74:	d0a6f017 	ldw	r2,-25664(gp)
 8000e78:	d126f104 	addi	r4,gp,-25660
 8000e7c:	20c00017 	ldw	r3,0(r4)
 8000e80:	1009883a 	mov	r4,r2
 8000e84:	180b883a 	mov	r5,r3
 8000e88:	80054fc0 	call	80054fc <cos>
 8000e8c:	100f883a 	mov	r7,r2
 8000e90:	1811883a 	mov	r8,r3
 8000e94:	e13fee17 	ldw	r4,-72(fp)
 8000e98:	e17fef17 	ldw	r5,-68(fp)
 8000e9c:	380d883a 	mov	r6,r7
 8000ea0:	400f883a 	mov	r7,r8
 8000ea4:	800b9f00 	call	800b9f0 <__muldf3>
 8000ea8:	1009883a 	mov	r4,r2
 8000eac:	180b883a 	mov	r5,r3
 8000eb0:	2005883a 	mov	r2,r4
 8000eb4:	2807883a 	mov	r3,r5
 8000eb8:	e13fec17 	ldw	r4,-80(fp)
 8000ebc:	e17fed17 	ldw	r5,-76(fp)
 8000ec0:	100d883a 	mov	r6,r2
 8000ec4:	180f883a 	mov	r7,r3
 8000ec8:	800c25c0 	call	800c25c <__subdf3>
 8000ecc:	1009883a 	mov	r4,r2
 8000ed0:	180b883a 	mov	r5,r3
 8000ed4:	e13ff015 	stw	r4,-64(fp)
 8000ed8:	e17ff115 	stw	r5,-60(fp)
 8000edc:	d0a6e717 	ldw	r2,-25700(gp)
 8000ee0:	d126e804 	addi	r4,gp,-25696
 8000ee4:	20c00017 	ldw	r3,0(r4)
 8000ee8:	1009883a 	mov	r4,r2
 8000eec:	180b883a 	mov	r5,r3
 8000ef0:	8005e1c0 	call	8005e1c <sqrt>
 8000ef4:	100f883a 	mov	r7,r2
 8000ef8:	1811883a 	mov	r8,r3
 8000efc:	3809883a 	mov	r4,r7
 8000f00:	400b883a 	mov	r5,r8
 8000f04:	380d883a 	mov	r6,r7
 8000f08:	400f883a 	mov	r7,r8
 8000f0c:	800a5900 	call	800a590 <__adddf3>
 8000f10:	100f883a 	mov	r7,r2
 8000f14:	1811883a 	mov	r8,r3
 8000f18:	380b883a 	mov	r5,r7
 8000f1c:	400d883a 	mov	r6,r8
 8000f20:	d0a70117 	ldw	r2,-25596(gp)
 8000f24:	d1270204 	addi	r4,gp,-25592
 8000f28:	20c00017 	ldw	r3,0(r4)
 8000f2c:	2809883a 	mov	r4,r5
 8000f30:	300b883a 	mov	r5,r6
 8000f34:	100d883a 	mov	r6,r2
 8000f38:	180f883a 	mov	r7,r3
 8000f3c:	800b9f00 	call	800b9f0 <__muldf3>
 8000f40:	1009883a 	mov	r4,r2
 8000f44:	180b883a 	mov	r5,r3
 8000f48:	2005883a 	mov	r2,r4
 8000f4c:	2807883a 	mov	r3,r5
 8000f50:	e13ff017 	ldw	r4,-64(fp)
 8000f54:	e17ff117 	ldw	r5,-60(fp)
 8000f58:	100d883a 	mov	r6,r2
 8000f5c:	180f883a 	mov	r7,r3
 8000f60:	800a5900 	call	800a590 <__adddf3>
 8000f64:	1009883a 	mov	r4,r2
 8000f68:	180b883a 	mov	r5,r3
 8000f6c:	2005883a 	mov	r2,r4
 8000f70:	2807883a 	mov	r3,r5
 8000f74:	d0a6ff15 	stw	r2,-25604(gp)
 8000f78:	d1270004 	addi	r4,gp,-25600
 8000f7c:	20c00015 	stw	r3,0(r4)
 8000f80:	00001506 	br	8000fd8 <process_filter+0x5a0>
	else if (type == 4 || type == 5) // Passband
 8000f84:	d0a6e617 	ldw	r2,-25704(gp)
 8000f88:	10800120 	cmpeqi	r2,r2,4
 8000f8c:	1000031e 	bne	r2,zero,8000f9c <process_filter+0x564>
 8000f90:	d0a6e617 	ldw	r2,-25704(gp)
 8000f94:	10800158 	cmpnei	r2,r2,5
 8000f98:	10000f1e 	bne	r2,zero,8000fd8 <process_filter+0x5a0>
		a0 = 1 + alpha;
 8000f9c:	d0a70117 	ldw	r2,-25596(gp)
 8000fa0:	d1270204 	addi	r4,gp,-25592
 8000fa4:	20c00017 	ldw	r3,0(r4)
 8000fa8:	1009883a 	mov	r4,r2
 8000fac:	180b883a 	mov	r5,r3
 8000fb0:	000d883a 	mov	r6,zero
 8000fb4:	01cffc34 	movhi	r7,16368
 8000fb8:	800a5900 	call	800a590 <__adddf3>
 8000fbc:	1009883a 	mov	r4,r2
 8000fc0:	180b883a 	mov	r5,r3
 8000fc4:	2005883a 	mov	r2,r4
 8000fc8:	2807883a 	mov	r3,r5
 8000fcc:	d0a6ff15 	stw	r2,-25604(gp)
 8000fd0:	d1270004 	addi	r4,gp,-25600
 8000fd4:	20c00015 	stw	r3,0(r4)

	switch (type) {
 8000fd8:	d0a6e617 	ldw	r2,-25704(gp)
 8000fdc:	10c001a8 	cmpgeui	r3,r2,6
 8000fe0:	18060b1e 	bne	r3,zero,8002810 <process_filter+0x1dd8>
 8000fe4:	100690ba 	slli	r3,r2,2
 8000fe8:	00820034 	movhi	r2,2048
 8000fec:	1083ff04 	addi	r2,r2,4092
 8000ff0:	1885883a 	add	r2,r3,r2
 8000ff4:	10800017 	ldw	r2,0(r2)
 8000ff8:	1000683a 	jmp	r2
 8000ffc:	08002810 	cmplti	zero,at,160
 8001000:	08001014 	ori	zero,at,64
 8001004:	080012f8 	rdprs	zero,at,75
 8001008:	08001abc 	xorhi	zero,at,106
 800100c:	08002288 	cmpgei	zero,at,138
 8001010:	08002548 	cmpgei	zero,at,149
	case 1: //Peak EQ
		b0 = (1 + (alpha * A)) / a0;
 8001014:	d1670117 	ldw	r5,-25596(gp)
 8001018:	d0a70204 	addi	r2,gp,-25592
 800101c:	11800017 	ldw	r6,0(r2)
 8001020:	d0a6e717 	ldw	r2,-25700(gp)
 8001024:	d126e804 	addi	r4,gp,-25696
 8001028:	20c00017 	ldw	r3,0(r4)
 800102c:	2809883a 	mov	r4,r5
 8001030:	300b883a 	mov	r5,r6
 8001034:	100d883a 	mov	r6,r2
 8001038:	180f883a 	mov	r7,r3
 800103c:	800b9f00 	call	800b9f0 <__muldf3>
 8001040:	1009883a 	mov	r4,r2
 8001044:	180b883a 	mov	r5,r3
 8001048:	2005883a 	mov	r2,r4
 800104c:	2807883a 	mov	r3,r5
 8001050:	1009883a 	mov	r4,r2
 8001054:	180b883a 	mov	r5,r3
 8001058:	000d883a 	mov	r6,zero
 800105c:	01cffc34 	movhi	r7,16368
 8001060:	800a5900 	call	800a590 <__adddf3>
 8001064:	100f883a 	mov	r7,r2
 8001068:	1811883a 	mov	r8,r3
 800106c:	380b883a 	mov	r5,r7
 8001070:	400d883a 	mov	r6,r8
 8001074:	d0a6ff17 	ldw	r2,-25604(gp)
 8001078:	d1270004 	addi	r4,gp,-25600
 800107c:	20c00017 	ldw	r3,0(r4)
 8001080:	2809883a 	mov	r4,r5
 8001084:	300b883a 	mov	r5,r6
 8001088:	100d883a 	mov	r6,r2
 800108c:	180f883a 	mov	r7,r3
 8001090:	800ae2c0 	call	800ae2c <__divdf3>
 8001094:	1009883a 	mov	r4,r2
 8001098:	180b883a 	mov	r5,r3
 800109c:	2005883a 	mov	r2,r4
 80010a0:	2807883a 	mov	r3,r5
 80010a4:	d0a6fd15 	stw	r2,-25612(gp)
 80010a8:	d126fe04 	addi	r4,gp,-25608
 80010ac:	20c00015 	stw	r3,0(r4)
		b1 = (-2 * cos(w0)) / a0;
 80010b0:	d0a6f017 	ldw	r2,-25664(gp)
 80010b4:	d126f104 	addi	r4,gp,-25660
 80010b8:	20c00017 	ldw	r3,0(r4)
 80010bc:	1009883a 	mov	r4,r2
 80010c0:	180b883a 	mov	r5,r3
 80010c4:	80054fc0 	call	80054fc <cos>
 80010c8:	100b883a 	mov	r5,r2
 80010cc:	180d883a 	mov	r6,r3
 80010d0:	2809883a 	mov	r4,r5
 80010d4:	300b883a 	mov	r5,r6
 80010d8:	000d883a 	mov	r6,zero
 80010dc:	01f00034 	movhi	r7,49152
 80010e0:	800b9f00 	call	800b9f0 <__muldf3>
 80010e4:	100f883a 	mov	r7,r2
 80010e8:	1811883a 	mov	r8,r3
 80010ec:	380b883a 	mov	r5,r7
 80010f0:	400d883a 	mov	r6,r8
 80010f4:	d0a6ff17 	ldw	r2,-25604(gp)
 80010f8:	d1270004 	addi	r4,gp,-25600
 80010fc:	20c00017 	ldw	r3,0(r4)
 8001100:	2809883a 	mov	r4,r5
 8001104:	300b883a 	mov	r5,r6
 8001108:	100d883a 	mov	r6,r2
 800110c:	180f883a 	mov	r7,r3
 8001110:	800ae2c0 	call	800ae2c <__divdf3>
 8001114:	1009883a 	mov	r4,r2
 8001118:	180b883a 	mov	r5,r3
 800111c:	2005883a 	mov	r2,r4
 8001120:	2807883a 	mov	r3,r5
 8001124:	d0a6ec15 	stw	r2,-25680(gp)
 8001128:	d126ed04 	addi	r4,gp,-25676
 800112c:	20c00015 	stw	r3,0(r4)
		b2 = (1 - (alpha * A)) / a0;
 8001130:	d1670117 	ldw	r5,-25596(gp)
 8001134:	d0a70204 	addi	r2,gp,-25592
 8001138:	11800017 	ldw	r6,0(r2)
 800113c:	d0a6e717 	ldw	r2,-25700(gp)
 8001140:	d126e804 	addi	r4,gp,-25696
 8001144:	20c00017 	ldw	r3,0(r4)
 8001148:	2809883a 	mov	r4,r5
 800114c:	300b883a 	mov	r5,r6
 8001150:	100d883a 	mov	r6,r2
 8001154:	180f883a 	mov	r7,r3
 8001158:	800b9f00 	call	800b9f0 <__muldf3>
 800115c:	1009883a 	mov	r4,r2
 8001160:	180b883a 	mov	r5,r3
 8001164:	2005883a 	mov	r2,r4
 8001168:	2807883a 	mov	r3,r5
 800116c:	0009883a 	mov	r4,zero
 8001170:	014ffc34 	movhi	r5,16368
 8001174:	100d883a 	mov	r6,r2
 8001178:	180f883a 	mov	r7,r3
 800117c:	800c25c0 	call	800c25c <__subdf3>
 8001180:	100f883a 	mov	r7,r2
 8001184:	1811883a 	mov	r8,r3
 8001188:	380b883a 	mov	r5,r7
 800118c:	400d883a 	mov	r6,r8
 8001190:	d0a6ff17 	ldw	r2,-25604(gp)
 8001194:	d1270004 	addi	r4,gp,-25600
 8001198:	20c00017 	ldw	r3,0(r4)
 800119c:	2809883a 	mov	r4,r5
 80011a0:	300b883a 	mov	r5,r6
 80011a4:	100d883a 	mov	r6,r2
 80011a8:	180f883a 	mov	r7,r3
 80011ac:	800ae2c0 	call	800ae2c <__divdf3>
 80011b0:	1009883a 	mov	r4,r2
 80011b4:	180b883a 	mov	r5,r3
 80011b8:	2005883a 	mov	r2,r4
 80011bc:	2807883a 	mov	r3,r5
 80011c0:	d0a6e415 	stw	r2,-25712(gp)
 80011c4:	d126e504 	addi	r4,gp,-25708
 80011c8:	20c00015 	stw	r3,0(r4)
		a1 = -(-2 * cos(w0)) / a0;
 80011cc:	d0a6f017 	ldw	r2,-25664(gp)
 80011d0:	d126f104 	addi	r4,gp,-25660
 80011d4:	20c00017 	ldw	r3,0(r4)
 80011d8:	1009883a 	mov	r4,r2
 80011dc:	180b883a 	mov	r5,r3
 80011e0:	80054fc0 	call	80054fc <cos>
 80011e4:	100f883a 	mov	r7,r2
 80011e8:	1811883a 	mov	r8,r3
 80011ec:	3809883a 	mov	r4,r7
 80011f0:	400b883a 	mov	r5,r8
 80011f4:	380d883a 	mov	r6,r7
 80011f8:	400f883a 	mov	r7,r8
 80011fc:	800a5900 	call	800a590 <__adddf3>
 8001200:	100f883a 	mov	r7,r2
 8001204:	1811883a 	mov	r8,r3
 8001208:	380b883a 	mov	r5,r7
 800120c:	400d883a 	mov	r6,r8
 8001210:	d0a6ff17 	ldw	r2,-25604(gp)
 8001214:	d1270004 	addi	r4,gp,-25600
 8001218:	20c00017 	ldw	r3,0(r4)
 800121c:	2809883a 	mov	r4,r5
 8001220:	300b883a 	mov	r5,r6
 8001224:	100d883a 	mov	r6,r2
 8001228:	180f883a 	mov	r7,r3
 800122c:	800ae2c0 	call	800ae2c <__divdf3>
 8001230:	1009883a 	mov	r4,r2
 8001234:	180b883a 	mov	r5,r3
 8001238:	2005883a 	mov	r2,r4
 800123c:	2807883a 	mov	r3,r5
 8001240:	d0a6ee15 	stw	r2,-25672(gp)
 8001244:	d126ef04 	addi	r4,gp,-25668
 8001248:	20c00015 	stw	r3,0(r4)
		a2 = -(1 - (alpha / A)) / a0;
 800124c:	d1670117 	ldw	r5,-25596(gp)
 8001250:	d0a70204 	addi	r2,gp,-25592
 8001254:	11800017 	ldw	r6,0(r2)
 8001258:	d0a6e717 	ldw	r2,-25700(gp)
 800125c:	d126e804 	addi	r4,gp,-25696
 8001260:	20c00017 	ldw	r3,0(r4)
 8001264:	2809883a 	mov	r4,r5
 8001268:	300b883a 	mov	r5,r6
 800126c:	100d883a 	mov	r6,r2
 8001270:	180f883a 	mov	r7,r3
 8001274:	800ae2c0 	call	800ae2c <__divdf3>
 8001278:	1009883a 	mov	r4,r2
 800127c:	180b883a 	mov	r5,r3
 8001280:	2005883a 	mov	r2,r4
 8001284:	2807883a 	mov	r3,r5
 8001288:	0009883a 	mov	r4,zero
 800128c:	014ffc34 	movhi	r5,16368
 8001290:	100d883a 	mov	r6,r2
 8001294:	180f883a 	mov	r7,r3
 8001298:	800c25c0 	call	800c25c <__subdf3>
 800129c:	1009883a 	mov	r4,r2
 80012a0:	180b883a 	mov	r5,r3
 80012a4:	2005883a 	mov	r2,r4
 80012a8:	2807883a 	mov	r3,r5
 80012ac:	e0bff215 	stw	r2,-56(fp)
 80012b0:	1920003c 	xorhi	r4,r3,32768
 80012b4:	e13ff315 	stw	r4,-52(fp)
 80012b8:	d0a6ff17 	ldw	r2,-25604(gp)
 80012bc:	d1270004 	addi	r4,gp,-25600
 80012c0:	20c00017 	ldw	r3,0(r4)
 80012c4:	e13ff217 	ldw	r4,-56(fp)
 80012c8:	e17ff317 	ldw	r5,-52(fp)
 80012cc:	100d883a 	mov	r6,r2
 80012d0:	180f883a 	mov	r7,r3
 80012d4:	800ae2c0 	call	800ae2c <__divdf3>
 80012d8:	1009883a 	mov	r4,r2
 80012dc:	180b883a 	mov	r5,r3
 80012e0:	2005883a 	mov	r2,r4
 80012e4:	2807883a 	mov	r3,r5
 80012e8:	d0a6f915 	stw	r2,-25628(gp)
 80012ec:	d126fa04 	addi	r4,gp,-25624
 80012f0:	20c00015 	stw	r3,0(r4)
		break;
 80012f4:	00054606 	br	8002810 <process_filter+0x1dd8>
	case 2: //Low Shelf
		b0 = (A*((A+1)-((A-1)*cos(w0))+(2*sqrt(A)*alpha)))/a0;
 80012f8:	d0a6e717 	ldw	r2,-25700(gp)
 80012fc:	d126e804 	addi	r4,gp,-25696
 8001300:	20c00017 	ldw	r3,0(r4)
 8001304:	1009883a 	mov	r4,r2
 8001308:	180b883a 	mov	r5,r3
 800130c:	000d883a 	mov	r6,zero
 8001310:	01cffc34 	movhi	r7,16368
 8001314:	800a5900 	call	800a590 <__adddf3>
 8001318:	1009883a 	mov	r4,r2
 800131c:	180b883a 	mov	r5,r3
 8001320:	2021883a 	mov	r16,r4
 8001324:	2823883a 	mov	r17,r5
 8001328:	d0a6e717 	ldw	r2,-25700(gp)
 800132c:	d126e804 	addi	r4,gp,-25696
 8001330:	20c00017 	ldw	r3,0(r4)
 8001334:	1009883a 	mov	r4,r2
 8001338:	180b883a 	mov	r5,r3
 800133c:	000d883a 	mov	r6,zero
 8001340:	01cffc34 	movhi	r7,16368
 8001344:	800c25c0 	call	800c25c <__subdf3>
 8001348:	1009883a 	mov	r4,r2
 800134c:	180b883a 	mov	r5,r3
 8001350:	2025883a 	mov	r18,r4
 8001354:	2827883a 	mov	r19,r5
 8001358:	d0a6f017 	ldw	r2,-25664(gp)
 800135c:	d126f104 	addi	r4,gp,-25660
 8001360:	20c00017 	ldw	r3,0(r4)
 8001364:	1009883a 	mov	r4,r2
 8001368:	180b883a 	mov	r5,r3
 800136c:	80054fc0 	call	80054fc <cos>
 8001370:	100f883a 	mov	r7,r2
 8001374:	1811883a 	mov	r8,r3
 8001378:	9009883a 	mov	r4,r18
 800137c:	980b883a 	mov	r5,r19
 8001380:	380d883a 	mov	r6,r7
 8001384:	400f883a 	mov	r7,r8
 8001388:	800b9f00 	call	800b9f0 <__muldf3>
 800138c:	1009883a 	mov	r4,r2
 8001390:	180b883a 	mov	r5,r3
 8001394:	2005883a 	mov	r2,r4
 8001398:	2807883a 	mov	r3,r5
 800139c:	8009883a 	mov	r4,r16
 80013a0:	880b883a 	mov	r5,r17
 80013a4:	100d883a 	mov	r6,r2
 80013a8:	180f883a 	mov	r7,r3
 80013ac:	800c25c0 	call	800c25c <__subdf3>
 80013b0:	1009883a 	mov	r4,r2
 80013b4:	180b883a 	mov	r5,r3
 80013b8:	2021883a 	mov	r16,r4
 80013bc:	2823883a 	mov	r17,r5
 80013c0:	d0a6e717 	ldw	r2,-25700(gp)
 80013c4:	d126e804 	addi	r4,gp,-25696
 80013c8:	20c00017 	ldw	r3,0(r4)
 80013cc:	1009883a 	mov	r4,r2
 80013d0:	180b883a 	mov	r5,r3
 80013d4:	8005e1c0 	call	8005e1c <sqrt>
 80013d8:	100f883a 	mov	r7,r2
 80013dc:	1811883a 	mov	r8,r3
 80013e0:	3809883a 	mov	r4,r7
 80013e4:	400b883a 	mov	r5,r8
 80013e8:	380d883a 	mov	r6,r7
 80013ec:	400f883a 	mov	r7,r8
 80013f0:	800a5900 	call	800a590 <__adddf3>
 80013f4:	100f883a 	mov	r7,r2
 80013f8:	1811883a 	mov	r8,r3
 80013fc:	380b883a 	mov	r5,r7
 8001400:	400d883a 	mov	r6,r8
 8001404:	d0a70117 	ldw	r2,-25596(gp)
 8001408:	d1270204 	addi	r4,gp,-25592
 800140c:	20c00017 	ldw	r3,0(r4)
 8001410:	2809883a 	mov	r4,r5
 8001414:	300b883a 	mov	r5,r6
 8001418:	100d883a 	mov	r6,r2
 800141c:	180f883a 	mov	r7,r3
 8001420:	800b9f00 	call	800b9f0 <__muldf3>
 8001424:	1009883a 	mov	r4,r2
 8001428:	180b883a 	mov	r5,r3
 800142c:	2005883a 	mov	r2,r4
 8001430:	2807883a 	mov	r3,r5
 8001434:	8009883a 	mov	r4,r16
 8001438:	880b883a 	mov	r5,r17
 800143c:	100d883a 	mov	r6,r2
 8001440:	180f883a 	mov	r7,r3
 8001444:	800a5900 	call	800a590 <__adddf3>
 8001448:	100f883a 	mov	r7,r2
 800144c:	1811883a 	mov	r8,r3
 8001450:	380b883a 	mov	r5,r7
 8001454:	400d883a 	mov	r6,r8
 8001458:	d0a6e717 	ldw	r2,-25700(gp)
 800145c:	d126e804 	addi	r4,gp,-25696
 8001460:	20c00017 	ldw	r3,0(r4)
 8001464:	2809883a 	mov	r4,r5
 8001468:	300b883a 	mov	r5,r6
 800146c:	100d883a 	mov	r6,r2
 8001470:	180f883a 	mov	r7,r3
 8001474:	800b9f00 	call	800b9f0 <__muldf3>
 8001478:	100f883a 	mov	r7,r2
 800147c:	1811883a 	mov	r8,r3
 8001480:	380b883a 	mov	r5,r7
 8001484:	400d883a 	mov	r6,r8
 8001488:	d0a6ff17 	ldw	r2,-25604(gp)
 800148c:	d1270004 	addi	r4,gp,-25600
 8001490:	20c00017 	ldw	r3,0(r4)
 8001494:	2809883a 	mov	r4,r5
 8001498:	300b883a 	mov	r5,r6
 800149c:	100d883a 	mov	r6,r2
 80014a0:	180f883a 	mov	r7,r3
 80014a4:	800ae2c0 	call	800ae2c <__divdf3>
 80014a8:	1009883a 	mov	r4,r2
 80014ac:	180b883a 	mov	r5,r3
 80014b0:	2005883a 	mov	r2,r4
 80014b4:	2807883a 	mov	r3,r5
 80014b8:	d0a6fd15 	stw	r2,-25612(gp)
 80014bc:	d126fe04 	addi	r4,gp,-25608
 80014c0:	20c00015 	stw	r3,0(r4)
		b1 = (2*A*((A-1) - ((A+1)*cos(w0))))/a0;
 80014c4:	d0a6e717 	ldw	r2,-25700(gp)
 80014c8:	d126e804 	addi	r4,gp,-25696
 80014cc:	20c00017 	ldw	r3,0(r4)
 80014d0:	1009883a 	mov	r4,r2
 80014d4:	180b883a 	mov	r5,r3
 80014d8:	100d883a 	mov	r6,r2
 80014dc:	180f883a 	mov	r7,r3
 80014e0:	800a5900 	call	800a590 <__adddf3>
 80014e4:	1009883a 	mov	r4,r2
 80014e8:	180b883a 	mov	r5,r3
 80014ec:	2021883a 	mov	r16,r4
 80014f0:	2823883a 	mov	r17,r5
 80014f4:	d0a6e717 	ldw	r2,-25700(gp)
 80014f8:	d126e804 	addi	r4,gp,-25696
 80014fc:	20c00017 	ldw	r3,0(r4)
 8001500:	1009883a 	mov	r4,r2
 8001504:	180b883a 	mov	r5,r3
 8001508:	000d883a 	mov	r6,zero
 800150c:	01cffc34 	movhi	r7,16368
 8001510:	800c25c0 	call	800c25c <__subdf3>
 8001514:	1009883a 	mov	r4,r2
 8001518:	180b883a 	mov	r5,r3
 800151c:	2025883a 	mov	r18,r4
 8001520:	2827883a 	mov	r19,r5
 8001524:	d0a6e717 	ldw	r2,-25700(gp)
 8001528:	d126e804 	addi	r4,gp,-25696
 800152c:	20c00017 	ldw	r3,0(r4)
 8001530:	1009883a 	mov	r4,r2
 8001534:	180b883a 	mov	r5,r3
 8001538:	000d883a 	mov	r6,zero
 800153c:	01cffc34 	movhi	r7,16368
 8001540:	800a5900 	call	800a590 <__adddf3>
 8001544:	1009883a 	mov	r4,r2
 8001548:	180b883a 	mov	r5,r3
 800154c:	2029883a 	mov	r20,r4
 8001550:	282b883a 	mov	r21,r5
 8001554:	d0a6f017 	ldw	r2,-25664(gp)
 8001558:	d126f104 	addi	r4,gp,-25660
 800155c:	20c00017 	ldw	r3,0(r4)
 8001560:	1009883a 	mov	r4,r2
 8001564:	180b883a 	mov	r5,r3
 8001568:	80054fc0 	call	80054fc <cos>
 800156c:	100f883a 	mov	r7,r2
 8001570:	1811883a 	mov	r8,r3
 8001574:	a009883a 	mov	r4,r20
 8001578:	a80b883a 	mov	r5,r21
 800157c:	380d883a 	mov	r6,r7
 8001580:	400f883a 	mov	r7,r8
 8001584:	800b9f00 	call	800b9f0 <__muldf3>
 8001588:	1009883a 	mov	r4,r2
 800158c:	180b883a 	mov	r5,r3
 8001590:	2005883a 	mov	r2,r4
 8001594:	2807883a 	mov	r3,r5
 8001598:	9009883a 	mov	r4,r18
 800159c:	980b883a 	mov	r5,r19
 80015a0:	100d883a 	mov	r6,r2
 80015a4:	180f883a 	mov	r7,r3
 80015a8:	800c25c0 	call	800c25c <__subdf3>
 80015ac:	1009883a 	mov	r4,r2
 80015b0:	180b883a 	mov	r5,r3
 80015b4:	2005883a 	mov	r2,r4
 80015b8:	2807883a 	mov	r3,r5
 80015bc:	8009883a 	mov	r4,r16
 80015c0:	880b883a 	mov	r5,r17
 80015c4:	100d883a 	mov	r6,r2
 80015c8:	180f883a 	mov	r7,r3
 80015cc:	800b9f00 	call	800b9f0 <__muldf3>
 80015d0:	100f883a 	mov	r7,r2
 80015d4:	1811883a 	mov	r8,r3
 80015d8:	380b883a 	mov	r5,r7
 80015dc:	400d883a 	mov	r6,r8
 80015e0:	d0a6ff17 	ldw	r2,-25604(gp)
 80015e4:	d1270004 	addi	r4,gp,-25600
 80015e8:	20c00017 	ldw	r3,0(r4)
 80015ec:	2809883a 	mov	r4,r5
 80015f0:	300b883a 	mov	r5,r6
 80015f4:	100d883a 	mov	r6,r2
 80015f8:	180f883a 	mov	r7,r3
 80015fc:	800ae2c0 	call	800ae2c <__divdf3>
 8001600:	1009883a 	mov	r4,r2
 8001604:	180b883a 	mov	r5,r3
 8001608:	2005883a 	mov	r2,r4
 800160c:	2807883a 	mov	r3,r5
 8001610:	d0a6ec15 	stw	r2,-25680(gp)
 8001614:	d126ed04 	addi	r4,gp,-25676
 8001618:	20c00015 	stw	r3,0(r4)
		b2 = (A*((A+1)-((A-1)*cos(w0))-(2*sqrt(A)*alpha)))/a0;
 800161c:	d0a6e717 	ldw	r2,-25700(gp)
 8001620:	d126e804 	addi	r4,gp,-25696
 8001624:	20c00017 	ldw	r3,0(r4)
 8001628:	1009883a 	mov	r4,r2
 800162c:	180b883a 	mov	r5,r3
 8001630:	000d883a 	mov	r6,zero
 8001634:	01cffc34 	movhi	r7,16368
 8001638:	800a5900 	call	800a590 <__adddf3>
 800163c:	1009883a 	mov	r4,r2
 8001640:	180b883a 	mov	r5,r3
 8001644:	2021883a 	mov	r16,r4
 8001648:	2823883a 	mov	r17,r5
 800164c:	d0a6e717 	ldw	r2,-25700(gp)
 8001650:	d126e804 	addi	r4,gp,-25696
 8001654:	20c00017 	ldw	r3,0(r4)
 8001658:	1009883a 	mov	r4,r2
 800165c:	180b883a 	mov	r5,r3
 8001660:	000d883a 	mov	r6,zero
 8001664:	01cffc34 	movhi	r7,16368
 8001668:	800c25c0 	call	800c25c <__subdf3>
 800166c:	1009883a 	mov	r4,r2
 8001670:	180b883a 	mov	r5,r3
 8001674:	2025883a 	mov	r18,r4
 8001678:	2827883a 	mov	r19,r5
 800167c:	d0a6f017 	ldw	r2,-25664(gp)
 8001680:	d126f104 	addi	r4,gp,-25660
 8001684:	20c00017 	ldw	r3,0(r4)
 8001688:	1009883a 	mov	r4,r2
 800168c:	180b883a 	mov	r5,r3
 8001690:	80054fc0 	call	80054fc <cos>
 8001694:	100f883a 	mov	r7,r2
 8001698:	1811883a 	mov	r8,r3
 800169c:	9009883a 	mov	r4,r18
 80016a0:	980b883a 	mov	r5,r19
 80016a4:	380d883a 	mov	r6,r7
 80016a8:	400f883a 	mov	r7,r8
 80016ac:	800b9f00 	call	800b9f0 <__muldf3>
 80016b0:	1009883a 	mov	r4,r2
 80016b4:	180b883a 	mov	r5,r3
 80016b8:	2005883a 	mov	r2,r4
 80016bc:	2807883a 	mov	r3,r5
 80016c0:	8009883a 	mov	r4,r16
 80016c4:	880b883a 	mov	r5,r17
 80016c8:	100d883a 	mov	r6,r2
 80016cc:	180f883a 	mov	r7,r3
 80016d0:	800c25c0 	call	800c25c <__subdf3>
 80016d4:	1009883a 	mov	r4,r2
 80016d8:	180b883a 	mov	r5,r3
 80016dc:	2021883a 	mov	r16,r4
 80016e0:	2823883a 	mov	r17,r5
 80016e4:	d0a6e717 	ldw	r2,-25700(gp)
 80016e8:	d126e804 	addi	r4,gp,-25696
 80016ec:	20c00017 	ldw	r3,0(r4)
 80016f0:	1009883a 	mov	r4,r2
 80016f4:	180b883a 	mov	r5,r3
 80016f8:	8005e1c0 	call	8005e1c <sqrt>
 80016fc:	100f883a 	mov	r7,r2
 8001700:	1811883a 	mov	r8,r3
 8001704:	3809883a 	mov	r4,r7
 8001708:	400b883a 	mov	r5,r8
 800170c:	380d883a 	mov	r6,r7
 8001710:	400f883a 	mov	r7,r8
 8001714:	800a5900 	call	800a590 <__adddf3>
 8001718:	100f883a 	mov	r7,r2
 800171c:	1811883a 	mov	r8,r3
 8001720:	380b883a 	mov	r5,r7
 8001724:	400d883a 	mov	r6,r8
 8001728:	d0a70117 	ldw	r2,-25596(gp)
 800172c:	d1270204 	addi	r4,gp,-25592
 8001730:	20c00017 	ldw	r3,0(r4)
 8001734:	2809883a 	mov	r4,r5
 8001738:	300b883a 	mov	r5,r6
 800173c:	100d883a 	mov	r6,r2
 8001740:	180f883a 	mov	r7,r3
 8001744:	800b9f00 	call	800b9f0 <__muldf3>
 8001748:	1009883a 	mov	r4,r2
 800174c:	180b883a 	mov	r5,r3
 8001750:	2005883a 	mov	r2,r4
 8001754:	2807883a 	mov	r3,r5
 8001758:	8009883a 	mov	r4,r16
 800175c:	880b883a 	mov	r5,r17
 8001760:	100d883a 	mov	r6,r2
 8001764:	180f883a 	mov	r7,r3
 8001768:	800c25c0 	call	800c25c <__subdf3>
 800176c:	100f883a 	mov	r7,r2
 8001770:	1811883a 	mov	r8,r3
 8001774:	380b883a 	mov	r5,r7
 8001778:	400d883a 	mov	r6,r8
 800177c:	d0a6e717 	ldw	r2,-25700(gp)
 8001780:	d126e804 	addi	r4,gp,-25696
 8001784:	20c00017 	ldw	r3,0(r4)
 8001788:	2809883a 	mov	r4,r5
 800178c:	300b883a 	mov	r5,r6
 8001790:	100d883a 	mov	r6,r2
 8001794:	180f883a 	mov	r7,r3
 8001798:	800b9f00 	call	800b9f0 <__muldf3>
 800179c:	100f883a 	mov	r7,r2
 80017a0:	1811883a 	mov	r8,r3
 80017a4:	380b883a 	mov	r5,r7
 80017a8:	400d883a 	mov	r6,r8
 80017ac:	d0a6ff17 	ldw	r2,-25604(gp)
 80017b0:	d1270004 	addi	r4,gp,-25600
 80017b4:	20c00017 	ldw	r3,0(r4)
 80017b8:	2809883a 	mov	r4,r5
 80017bc:	300b883a 	mov	r5,r6
 80017c0:	100d883a 	mov	r6,r2
 80017c4:	180f883a 	mov	r7,r3
 80017c8:	800ae2c0 	call	800ae2c <__divdf3>
 80017cc:	1009883a 	mov	r4,r2
 80017d0:	180b883a 	mov	r5,r3
 80017d4:	2005883a 	mov	r2,r4
 80017d8:	2807883a 	mov	r3,r5
 80017dc:	d0a6e415 	stw	r2,-25712(gp)
 80017e0:	d126e504 	addi	r4,gp,-25708
 80017e4:	20c00015 	stw	r3,0(r4)
		a1 = -(-2*((A-1) + ((A+1)*cos(w0))))/a0;
 80017e8:	d0a6e717 	ldw	r2,-25700(gp)
 80017ec:	d126e804 	addi	r4,gp,-25696
 80017f0:	20c00017 	ldw	r3,0(r4)
 80017f4:	1009883a 	mov	r4,r2
 80017f8:	180b883a 	mov	r5,r3
 80017fc:	000d883a 	mov	r6,zero
 8001800:	01cffc34 	movhi	r7,16368
 8001804:	800c25c0 	call	800c25c <__subdf3>
 8001808:	1009883a 	mov	r4,r2
 800180c:	180b883a 	mov	r5,r3
 8001810:	2021883a 	mov	r16,r4
 8001814:	2823883a 	mov	r17,r5
 8001818:	d0a6e717 	ldw	r2,-25700(gp)
 800181c:	d126e804 	addi	r4,gp,-25696
 8001820:	20c00017 	ldw	r3,0(r4)
 8001824:	1009883a 	mov	r4,r2
 8001828:	180b883a 	mov	r5,r3
 800182c:	000d883a 	mov	r6,zero
 8001830:	01cffc34 	movhi	r7,16368
 8001834:	800a5900 	call	800a590 <__adddf3>
 8001838:	1009883a 	mov	r4,r2
 800183c:	180b883a 	mov	r5,r3
 8001840:	2025883a 	mov	r18,r4
 8001844:	2827883a 	mov	r19,r5
 8001848:	d0a6f017 	ldw	r2,-25664(gp)
 800184c:	d126f104 	addi	r4,gp,-25660
 8001850:	20c00017 	ldw	r3,0(r4)
 8001854:	1009883a 	mov	r4,r2
 8001858:	180b883a 	mov	r5,r3
 800185c:	80054fc0 	call	80054fc <cos>
 8001860:	100f883a 	mov	r7,r2
 8001864:	1811883a 	mov	r8,r3
 8001868:	9009883a 	mov	r4,r18
 800186c:	980b883a 	mov	r5,r19
 8001870:	380d883a 	mov	r6,r7
 8001874:	400f883a 	mov	r7,r8
 8001878:	800b9f00 	call	800b9f0 <__muldf3>
 800187c:	1009883a 	mov	r4,r2
 8001880:	180b883a 	mov	r5,r3
 8001884:	2005883a 	mov	r2,r4
 8001888:	2807883a 	mov	r3,r5
 800188c:	8009883a 	mov	r4,r16
 8001890:	880b883a 	mov	r5,r17
 8001894:	100d883a 	mov	r6,r2
 8001898:	180f883a 	mov	r7,r3
 800189c:	800a5900 	call	800a590 <__adddf3>
 80018a0:	1009883a 	mov	r4,r2
 80018a4:	180b883a 	mov	r5,r3
 80018a8:	2005883a 	mov	r2,r4
 80018ac:	2807883a 	mov	r3,r5
 80018b0:	1009883a 	mov	r4,r2
 80018b4:	180b883a 	mov	r5,r3
 80018b8:	100d883a 	mov	r6,r2
 80018bc:	180f883a 	mov	r7,r3
 80018c0:	800a5900 	call	800a590 <__adddf3>
 80018c4:	100f883a 	mov	r7,r2
 80018c8:	1811883a 	mov	r8,r3
 80018cc:	380b883a 	mov	r5,r7
 80018d0:	400d883a 	mov	r6,r8
 80018d4:	d0a6ff17 	ldw	r2,-25604(gp)
 80018d8:	d1270004 	addi	r4,gp,-25600
 80018dc:	20c00017 	ldw	r3,0(r4)
 80018e0:	2809883a 	mov	r4,r5
 80018e4:	300b883a 	mov	r5,r6
 80018e8:	100d883a 	mov	r6,r2
 80018ec:	180f883a 	mov	r7,r3
 80018f0:	800ae2c0 	call	800ae2c <__divdf3>
 80018f4:	1009883a 	mov	r4,r2
 80018f8:	180b883a 	mov	r5,r3
 80018fc:	2005883a 	mov	r2,r4
 8001900:	2807883a 	mov	r3,r5
 8001904:	d0a6ee15 	stw	r2,-25672(gp)
 8001908:	d126ef04 	addi	r4,gp,-25668
 800190c:	20c00015 	stw	r3,0(r4)
		a2 = -((A+1) + ((A-1)*cos(w0)) - (2*sqrt(A)*alpha))/a0;
 8001910:	d0a6e717 	ldw	r2,-25700(gp)
 8001914:	d126e804 	addi	r4,gp,-25696
 8001918:	20c00017 	ldw	r3,0(r4)
 800191c:	1009883a 	mov	r4,r2
 8001920:	180b883a 	mov	r5,r3
 8001924:	000d883a 	mov	r6,zero
 8001928:	01cffc34 	movhi	r7,16368
 800192c:	800a5900 	call	800a590 <__adddf3>
 8001930:	1009883a 	mov	r4,r2
 8001934:	180b883a 	mov	r5,r3
 8001938:	2021883a 	mov	r16,r4
 800193c:	2823883a 	mov	r17,r5
 8001940:	d0a6e717 	ldw	r2,-25700(gp)
 8001944:	d126e804 	addi	r4,gp,-25696
 8001948:	20c00017 	ldw	r3,0(r4)
 800194c:	1009883a 	mov	r4,r2
 8001950:	180b883a 	mov	r5,r3
 8001954:	000d883a 	mov	r6,zero
 8001958:	01cffc34 	movhi	r7,16368
 800195c:	800c25c0 	call	800c25c <__subdf3>
 8001960:	1009883a 	mov	r4,r2
 8001964:	180b883a 	mov	r5,r3
 8001968:	2025883a 	mov	r18,r4
 800196c:	2827883a 	mov	r19,r5
 8001970:	d0a6f017 	ldw	r2,-25664(gp)
 8001974:	d126f104 	addi	r4,gp,-25660
 8001978:	20c00017 	ldw	r3,0(r4)
 800197c:	1009883a 	mov	r4,r2
 8001980:	180b883a 	mov	r5,r3
 8001984:	80054fc0 	call	80054fc <cos>
 8001988:	100f883a 	mov	r7,r2
 800198c:	1811883a 	mov	r8,r3
 8001990:	9009883a 	mov	r4,r18
 8001994:	980b883a 	mov	r5,r19
 8001998:	380d883a 	mov	r6,r7
 800199c:	400f883a 	mov	r7,r8
 80019a0:	800b9f00 	call	800b9f0 <__muldf3>
 80019a4:	1009883a 	mov	r4,r2
 80019a8:	180b883a 	mov	r5,r3
 80019ac:	2005883a 	mov	r2,r4
 80019b0:	2807883a 	mov	r3,r5
 80019b4:	8009883a 	mov	r4,r16
 80019b8:	880b883a 	mov	r5,r17
 80019bc:	100d883a 	mov	r6,r2
 80019c0:	180f883a 	mov	r7,r3
 80019c4:	800a5900 	call	800a590 <__adddf3>
 80019c8:	1009883a 	mov	r4,r2
 80019cc:	180b883a 	mov	r5,r3
 80019d0:	2021883a 	mov	r16,r4
 80019d4:	2823883a 	mov	r17,r5
 80019d8:	d0a6e717 	ldw	r2,-25700(gp)
 80019dc:	d126e804 	addi	r4,gp,-25696
 80019e0:	20c00017 	ldw	r3,0(r4)
 80019e4:	1009883a 	mov	r4,r2
 80019e8:	180b883a 	mov	r5,r3
 80019ec:	8005e1c0 	call	8005e1c <sqrt>
 80019f0:	100f883a 	mov	r7,r2
 80019f4:	1811883a 	mov	r8,r3
 80019f8:	3809883a 	mov	r4,r7
 80019fc:	400b883a 	mov	r5,r8
 8001a00:	380d883a 	mov	r6,r7
 8001a04:	400f883a 	mov	r7,r8
 8001a08:	800a5900 	call	800a590 <__adddf3>
 8001a0c:	100f883a 	mov	r7,r2
 8001a10:	1811883a 	mov	r8,r3
 8001a14:	380b883a 	mov	r5,r7
 8001a18:	400d883a 	mov	r6,r8
 8001a1c:	d0a70117 	ldw	r2,-25596(gp)
 8001a20:	d1270204 	addi	r4,gp,-25592
 8001a24:	20c00017 	ldw	r3,0(r4)
 8001a28:	2809883a 	mov	r4,r5
 8001a2c:	300b883a 	mov	r5,r6
 8001a30:	100d883a 	mov	r6,r2
 8001a34:	180f883a 	mov	r7,r3
 8001a38:	800b9f00 	call	800b9f0 <__muldf3>
 8001a3c:	1009883a 	mov	r4,r2
 8001a40:	180b883a 	mov	r5,r3
 8001a44:	2005883a 	mov	r2,r4
 8001a48:	2807883a 	mov	r3,r5
 8001a4c:	8009883a 	mov	r4,r16
 8001a50:	880b883a 	mov	r5,r17
 8001a54:	100d883a 	mov	r6,r2
 8001a58:	180f883a 	mov	r7,r3
 8001a5c:	800c25c0 	call	800c25c <__subdf3>
 8001a60:	1009883a 	mov	r4,r2
 8001a64:	180b883a 	mov	r5,r3
 8001a68:	2005883a 	mov	r2,r4
 8001a6c:	2807883a 	mov	r3,r5
 8001a70:	e0bff415 	stw	r2,-48(fp)
 8001a74:	1920003c 	xorhi	r4,r3,32768
 8001a78:	e13ff515 	stw	r4,-44(fp)
 8001a7c:	d0a6ff17 	ldw	r2,-25604(gp)
 8001a80:	d1270004 	addi	r4,gp,-25600
 8001a84:	20c00017 	ldw	r3,0(r4)
 8001a88:	e13ff417 	ldw	r4,-48(fp)
 8001a8c:	e17ff517 	ldw	r5,-44(fp)
 8001a90:	100d883a 	mov	r6,r2
 8001a94:	180f883a 	mov	r7,r3
 8001a98:	800ae2c0 	call	800ae2c <__divdf3>
 8001a9c:	1009883a 	mov	r4,r2
 8001aa0:	180b883a 	mov	r5,r3
 8001aa4:	2005883a 	mov	r2,r4
 8001aa8:	2807883a 	mov	r3,r5
 8001aac:	d0a6f915 	stw	r2,-25628(gp)
 8001ab0:	d126fa04 	addi	r4,gp,-25624
 8001ab4:	20c00015 	stw	r3,0(r4)
		break;
 8001ab8:	00035506 	br	8002810 <process_filter+0x1dd8>
	case 3: //High shelf
		b0 = (A*((A+1)+((A-1)*cos(w0))+(2*sqrt(A)*alpha)))/a0;
 8001abc:	d0a6e717 	ldw	r2,-25700(gp)
 8001ac0:	d126e804 	addi	r4,gp,-25696
 8001ac4:	20c00017 	ldw	r3,0(r4)
 8001ac8:	1009883a 	mov	r4,r2
 8001acc:	180b883a 	mov	r5,r3
 8001ad0:	000d883a 	mov	r6,zero
 8001ad4:	01cffc34 	movhi	r7,16368
 8001ad8:	800a5900 	call	800a590 <__adddf3>
 8001adc:	1009883a 	mov	r4,r2
 8001ae0:	180b883a 	mov	r5,r3
 8001ae4:	2021883a 	mov	r16,r4
 8001ae8:	2823883a 	mov	r17,r5
 8001aec:	d0a6e717 	ldw	r2,-25700(gp)
 8001af0:	d126e804 	addi	r4,gp,-25696
 8001af4:	20c00017 	ldw	r3,0(r4)
 8001af8:	1009883a 	mov	r4,r2
 8001afc:	180b883a 	mov	r5,r3
 8001b00:	000d883a 	mov	r6,zero
 8001b04:	01cffc34 	movhi	r7,16368
 8001b08:	800c25c0 	call	800c25c <__subdf3>
 8001b0c:	1009883a 	mov	r4,r2
 8001b10:	180b883a 	mov	r5,r3
 8001b14:	2025883a 	mov	r18,r4
 8001b18:	2827883a 	mov	r19,r5
 8001b1c:	d0a6f017 	ldw	r2,-25664(gp)
 8001b20:	d126f104 	addi	r4,gp,-25660
 8001b24:	20c00017 	ldw	r3,0(r4)
 8001b28:	1009883a 	mov	r4,r2
 8001b2c:	180b883a 	mov	r5,r3
 8001b30:	80054fc0 	call	80054fc <cos>
 8001b34:	100f883a 	mov	r7,r2
 8001b38:	1811883a 	mov	r8,r3
 8001b3c:	9009883a 	mov	r4,r18
 8001b40:	980b883a 	mov	r5,r19
 8001b44:	380d883a 	mov	r6,r7
 8001b48:	400f883a 	mov	r7,r8
 8001b4c:	800b9f00 	call	800b9f0 <__muldf3>
 8001b50:	1009883a 	mov	r4,r2
 8001b54:	180b883a 	mov	r5,r3
 8001b58:	2005883a 	mov	r2,r4
 8001b5c:	2807883a 	mov	r3,r5
 8001b60:	8009883a 	mov	r4,r16
 8001b64:	880b883a 	mov	r5,r17
 8001b68:	100d883a 	mov	r6,r2
 8001b6c:	180f883a 	mov	r7,r3
 8001b70:	800a5900 	call	800a590 <__adddf3>
 8001b74:	1009883a 	mov	r4,r2
 8001b78:	180b883a 	mov	r5,r3
 8001b7c:	2021883a 	mov	r16,r4
 8001b80:	2823883a 	mov	r17,r5
 8001b84:	d0a6e717 	ldw	r2,-25700(gp)
 8001b88:	d126e804 	addi	r4,gp,-25696
 8001b8c:	20c00017 	ldw	r3,0(r4)
 8001b90:	1009883a 	mov	r4,r2
 8001b94:	180b883a 	mov	r5,r3
 8001b98:	8005e1c0 	call	8005e1c <sqrt>
 8001b9c:	100f883a 	mov	r7,r2
 8001ba0:	1811883a 	mov	r8,r3
 8001ba4:	3809883a 	mov	r4,r7
 8001ba8:	400b883a 	mov	r5,r8
 8001bac:	380d883a 	mov	r6,r7
 8001bb0:	400f883a 	mov	r7,r8
 8001bb4:	800a5900 	call	800a590 <__adddf3>
 8001bb8:	100f883a 	mov	r7,r2
 8001bbc:	1811883a 	mov	r8,r3
 8001bc0:	380b883a 	mov	r5,r7
 8001bc4:	400d883a 	mov	r6,r8
 8001bc8:	d0a70117 	ldw	r2,-25596(gp)
 8001bcc:	d1270204 	addi	r4,gp,-25592
 8001bd0:	20c00017 	ldw	r3,0(r4)
 8001bd4:	2809883a 	mov	r4,r5
 8001bd8:	300b883a 	mov	r5,r6
 8001bdc:	100d883a 	mov	r6,r2
 8001be0:	180f883a 	mov	r7,r3
 8001be4:	800b9f00 	call	800b9f0 <__muldf3>
 8001be8:	1009883a 	mov	r4,r2
 8001bec:	180b883a 	mov	r5,r3
 8001bf0:	2005883a 	mov	r2,r4
 8001bf4:	2807883a 	mov	r3,r5
 8001bf8:	8009883a 	mov	r4,r16
 8001bfc:	880b883a 	mov	r5,r17
 8001c00:	100d883a 	mov	r6,r2
 8001c04:	180f883a 	mov	r7,r3
 8001c08:	800a5900 	call	800a590 <__adddf3>
 8001c0c:	100f883a 	mov	r7,r2
 8001c10:	1811883a 	mov	r8,r3
 8001c14:	380b883a 	mov	r5,r7
 8001c18:	400d883a 	mov	r6,r8
 8001c1c:	d0a6e717 	ldw	r2,-25700(gp)
 8001c20:	d126e804 	addi	r4,gp,-25696
 8001c24:	20c00017 	ldw	r3,0(r4)
 8001c28:	2809883a 	mov	r4,r5
 8001c2c:	300b883a 	mov	r5,r6
 8001c30:	100d883a 	mov	r6,r2
 8001c34:	180f883a 	mov	r7,r3
 8001c38:	800b9f00 	call	800b9f0 <__muldf3>
 8001c3c:	100f883a 	mov	r7,r2
 8001c40:	1811883a 	mov	r8,r3
 8001c44:	380b883a 	mov	r5,r7
 8001c48:	400d883a 	mov	r6,r8
 8001c4c:	d0a6ff17 	ldw	r2,-25604(gp)
 8001c50:	d1270004 	addi	r4,gp,-25600
 8001c54:	20c00017 	ldw	r3,0(r4)
 8001c58:	2809883a 	mov	r4,r5
 8001c5c:	300b883a 	mov	r5,r6
 8001c60:	100d883a 	mov	r6,r2
 8001c64:	180f883a 	mov	r7,r3
 8001c68:	800ae2c0 	call	800ae2c <__divdf3>
 8001c6c:	1009883a 	mov	r4,r2
 8001c70:	180b883a 	mov	r5,r3
 8001c74:	2005883a 	mov	r2,r4
 8001c78:	2807883a 	mov	r3,r5
 8001c7c:	d0a6fd15 	stw	r2,-25612(gp)
 8001c80:	d126fe04 	addi	r4,gp,-25608
 8001c84:	20c00015 	stw	r3,0(r4)
		b1 = (-2*A*((A-1) + ((A+1)*cos(w0))))/a0;
 8001c88:	d0a6e717 	ldw	r2,-25700(gp)
 8001c8c:	d126e804 	addi	r4,gp,-25696
 8001c90:	20c00017 	ldw	r3,0(r4)
 8001c94:	1009883a 	mov	r4,r2
 8001c98:	180b883a 	mov	r5,r3
 8001c9c:	000d883a 	mov	r6,zero
 8001ca0:	01f00034 	movhi	r7,49152
 8001ca4:	800b9f00 	call	800b9f0 <__muldf3>
 8001ca8:	1009883a 	mov	r4,r2
 8001cac:	180b883a 	mov	r5,r3
 8001cb0:	2021883a 	mov	r16,r4
 8001cb4:	2823883a 	mov	r17,r5
 8001cb8:	d0a6e717 	ldw	r2,-25700(gp)
 8001cbc:	d126e804 	addi	r4,gp,-25696
 8001cc0:	20c00017 	ldw	r3,0(r4)
 8001cc4:	1009883a 	mov	r4,r2
 8001cc8:	180b883a 	mov	r5,r3
 8001ccc:	000d883a 	mov	r6,zero
 8001cd0:	01cffc34 	movhi	r7,16368
 8001cd4:	800c25c0 	call	800c25c <__subdf3>
 8001cd8:	1009883a 	mov	r4,r2
 8001cdc:	180b883a 	mov	r5,r3
 8001ce0:	2025883a 	mov	r18,r4
 8001ce4:	2827883a 	mov	r19,r5
 8001ce8:	d0a6e717 	ldw	r2,-25700(gp)
 8001cec:	d126e804 	addi	r4,gp,-25696
 8001cf0:	20c00017 	ldw	r3,0(r4)
 8001cf4:	1009883a 	mov	r4,r2
 8001cf8:	180b883a 	mov	r5,r3
 8001cfc:	000d883a 	mov	r6,zero
 8001d00:	01cffc34 	movhi	r7,16368
 8001d04:	800a5900 	call	800a590 <__adddf3>
 8001d08:	1009883a 	mov	r4,r2
 8001d0c:	180b883a 	mov	r5,r3
 8001d10:	2029883a 	mov	r20,r4
 8001d14:	282b883a 	mov	r21,r5
 8001d18:	d0a6f017 	ldw	r2,-25664(gp)
 8001d1c:	d126f104 	addi	r4,gp,-25660
 8001d20:	20c00017 	ldw	r3,0(r4)
 8001d24:	1009883a 	mov	r4,r2
 8001d28:	180b883a 	mov	r5,r3
 8001d2c:	80054fc0 	call	80054fc <cos>
 8001d30:	100f883a 	mov	r7,r2
 8001d34:	1811883a 	mov	r8,r3
 8001d38:	a009883a 	mov	r4,r20
 8001d3c:	a80b883a 	mov	r5,r21
 8001d40:	380d883a 	mov	r6,r7
 8001d44:	400f883a 	mov	r7,r8
 8001d48:	800b9f00 	call	800b9f0 <__muldf3>
 8001d4c:	1009883a 	mov	r4,r2
 8001d50:	180b883a 	mov	r5,r3
 8001d54:	2005883a 	mov	r2,r4
 8001d58:	2807883a 	mov	r3,r5
 8001d5c:	9009883a 	mov	r4,r18
 8001d60:	980b883a 	mov	r5,r19
 8001d64:	100d883a 	mov	r6,r2
 8001d68:	180f883a 	mov	r7,r3
 8001d6c:	800a5900 	call	800a590 <__adddf3>
 8001d70:	1009883a 	mov	r4,r2
 8001d74:	180b883a 	mov	r5,r3
 8001d78:	2005883a 	mov	r2,r4
 8001d7c:	2807883a 	mov	r3,r5
 8001d80:	8009883a 	mov	r4,r16
 8001d84:	880b883a 	mov	r5,r17
 8001d88:	100d883a 	mov	r6,r2
 8001d8c:	180f883a 	mov	r7,r3
 8001d90:	800b9f00 	call	800b9f0 <__muldf3>
 8001d94:	100f883a 	mov	r7,r2
 8001d98:	1811883a 	mov	r8,r3
 8001d9c:	380b883a 	mov	r5,r7
 8001da0:	400d883a 	mov	r6,r8
 8001da4:	d0a6ff17 	ldw	r2,-25604(gp)
 8001da8:	d1270004 	addi	r4,gp,-25600
 8001dac:	20c00017 	ldw	r3,0(r4)
 8001db0:	2809883a 	mov	r4,r5
 8001db4:	300b883a 	mov	r5,r6
 8001db8:	100d883a 	mov	r6,r2
 8001dbc:	180f883a 	mov	r7,r3
 8001dc0:	800ae2c0 	call	800ae2c <__divdf3>
 8001dc4:	1009883a 	mov	r4,r2
 8001dc8:	180b883a 	mov	r5,r3
 8001dcc:	2005883a 	mov	r2,r4
 8001dd0:	2807883a 	mov	r3,r5
 8001dd4:	d0a6ec15 	stw	r2,-25680(gp)
 8001dd8:	d126ed04 	addi	r4,gp,-25676
 8001ddc:	20c00015 	stw	r3,0(r4)
		b2 = (A*((A+1)+((A-1)*cos(w0))-(2*sqrt(A)*alpha)))/a0;
 8001de0:	d0a6e717 	ldw	r2,-25700(gp)
 8001de4:	d126e804 	addi	r4,gp,-25696
 8001de8:	20c00017 	ldw	r3,0(r4)
 8001dec:	1009883a 	mov	r4,r2
 8001df0:	180b883a 	mov	r5,r3
 8001df4:	000d883a 	mov	r6,zero
 8001df8:	01cffc34 	movhi	r7,16368
 8001dfc:	800a5900 	call	800a590 <__adddf3>
 8001e00:	1009883a 	mov	r4,r2
 8001e04:	180b883a 	mov	r5,r3
 8001e08:	2021883a 	mov	r16,r4
 8001e0c:	2823883a 	mov	r17,r5
 8001e10:	d0a6e717 	ldw	r2,-25700(gp)
 8001e14:	d126e804 	addi	r4,gp,-25696
 8001e18:	20c00017 	ldw	r3,0(r4)
 8001e1c:	1009883a 	mov	r4,r2
 8001e20:	180b883a 	mov	r5,r3
 8001e24:	000d883a 	mov	r6,zero
 8001e28:	01cffc34 	movhi	r7,16368
 8001e2c:	800c25c0 	call	800c25c <__subdf3>
 8001e30:	1009883a 	mov	r4,r2
 8001e34:	180b883a 	mov	r5,r3
 8001e38:	2025883a 	mov	r18,r4
 8001e3c:	2827883a 	mov	r19,r5
 8001e40:	d0a6f017 	ldw	r2,-25664(gp)
 8001e44:	d126f104 	addi	r4,gp,-25660
 8001e48:	20c00017 	ldw	r3,0(r4)
 8001e4c:	1009883a 	mov	r4,r2
 8001e50:	180b883a 	mov	r5,r3
 8001e54:	80054fc0 	call	80054fc <cos>
 8001e58:	100f883a 	mov	r7,r2
 8001e5c:	1811883a 	mov	r8,r3
 8001e60:	9009883a 	mov	r4,r18
 8001e64:	980b883a 	mov	r5,r19
 8001e68:	380d883a 	mov	r6,r7
 8001e6c:	400f883a 	mov	r7,r8
 8001e70:	800b9f00 	call	800b9f0 <__muldf3>
 8001e74:	1009883a 	mov	r4,r2
 8001e78:	180b883a 	mov	r5,r3
 8001e7c:	2005883a 	mov	r2,r4
 8001e80:	2807883a 	mov	r3,r5
 8001e84:	8009883a 	mov	r4,r16
 8001e88:	880b883a 	mov	r5,r17
 8001e8c:	100d883a 	mov	r6,r2
 8001e90:	180f883a 	mov	r7,r3
 8001e94:	800a5900 	call	800a590 <__adddf3>
 8001e98:	1009883a 	mov	r4,r2
 8001e9c:	180b883a 	mov	r5,r3
 8001ea0:	2021883a 	mov	r16,r4
 8001ea4:	2823883a 	mov	r17,r5
 8001ea8:	d0a6e717 	ldw	r2,-25700(gp)
 8001eac:	d126e804 	addi	r4,gp,-25696
 8001eb0:	20c00017 	ldw	r3,0(r4)
 8001eb4:	1009883a 	mov	r4,r2
 8001eb8:	180b883a 	mov	r5,r3
 8001ebc:	8005e1c0 	call	8005e1c <sqrt>
 8001ec0:	100f883a 	mov	r7,r2
 8001ec4:	1811883a 	mov	r8,r3
 8001ec8:	3809883a 	mov	r4,r7
 8001ecc:	400b883a 	mov	r5,r8
 8001ed0:	380d883a 	mov	r6,r7
 8001ed4:	400f883a 	mov	r7,r8
 8001ed8:	800a5900 	call	800a590 <__adddf3>
 8001edc:	100f883a 	mov	r7,r2
 8001ee0:	1811883a 	mov	r8,r3
 8001ee4:	380b883a 	mov	r5,r7
 8001ee8:	400d883a 	mov	r6,r8
 8001eec:	d0a70117 	ldw	r2,-25596(gp)
 8001ef0:	d1270204 	addi	r4,gp,-25592
 8001ef4:	20c00017 	ldw	r3,0(r4)
 8001ef8:	2809883a 	mov	r4,r5
 8001efc:	300b883a 	mov	r5,r6
 8001f00:	100d883a 	mov	r6,r2
 8001f04:	180f883a 	mov	r7,r3
 8001f08:	800b9f00 	call	800b9f0 <__muldf3>
 8001f0c:	1009883a 	mov	r4,r2
 8001f10:	180b883a 	mov	r5,r3
 8001f14:	2005883a 	mov	r2,r4
 8001f18:	2807883a 	mov	r3,r5
 8001f1c:	8009883a 	mov	r4,r16
 8001f20:	880b883a 	mov	r5,r17
 8001f24:	100d883a 	mov	r6,r2
 8001f28:	180f883a 	mov	r7,r3
 8001f2c:	800c25c0 	call	800c25c <__subdf3>
 8001f30:	100f883a 	mov	r7,r2
 8001f34:	1811883a 	mov	r8,r3
 8001f38:	380b883a 	mov	r5,r7
 8001f3c:	400d883a 	mov	r6,r8
 8001f40:	d0a6e717 	ldw	r2,-25700(gp)
 8001f44:	d126e804 	addi	r4,gp,-25696
 8001f48:	20c00017 	ldw	r3,0(r4)
 8001f4c:	2809883a 	mov	r4,r5
 8001f50:	300b883a 	mov	r5,r6
 8001f54:	100d883a 	mov	r6,r2
 8001f58:	180f883a 	mov	r7,r3
 8001f5c:	800b9f00 	call	800b9f0 <__muldf3>
 8001f60:	100f883a 	mov	r7,r2
 8001f64:	1811883a 	mov	r8,r3
 8001f68:	380b883a 	mov	r5,r7
 8001f6c:	400d883a 	mov	r6,r8
 8001f70:	d0a6ff17 	ldw	r2,-25604(gp)
 8001f74:	d1270004 	addi	r4,gp,-25600
 8001f78:	20c00017 	ldw	r3,0(r4)
 8001f7c:	2809883a 	mov	r4,r5
 8001f80:	300b883a 	mov	r5,r6
 8001f84:	100d883a 	mov	r6,r2
 8001f88:	180f883a 	mov	r7,r3
 8001f8c:	800ae2c0 	call	800ae2c <__divdf3>
 8001f90:	1009883a 	mov	r4,r2
 8001f94:	180b883a 	mov	r5,r3
 8001f98:	2005883a 	mov	r2,r4
 8001f9c:	2807883a 	mov	r3,r5
 8001fa0:	d0a6e415 	stw	r2,-25712(gp)
 8001fa4:	d126e504 	addi	r4,gp,-25708
 8001fa8:	20c00015 	stw	r3,0(r4)
		a1 = -(2*((A-1) - ((A+1)*cos(w0))))/a0;
 8001fac:	d0a6e717 	ldw	r2,-25700(gp)
 8001fb0:	d126e804 	addi	r4,gp,-25696
 8001fb4:	20c00017 	ldw	r3,0(r4)
 8001fb8:	1009883a 	mov	r4,r2
 8001fbc:	180b883a 	mov	r5,r3
 8001fc0:	000d883a 	mov	r6,zero
 8001fc4:	01cffc34 	movhi	r7,16368
 8001fc8:	800c25c0 	call	800c25c <__subdf3>
 8001fcc:	1009883a 	mov	r4,r2
 8001fd0:	180b883a 	mov	r5,r3
 8001fd4:	2021883a 	mov	r16,r4
 8001fd8:	2823883a 	mov	r17,r5
 8001fdc:	d0a6e717 	ldw	r2,-25700(gp)
 8001fe0:	d126e804 	addi	r4,gp,-25696
 8001fe4:	20c00017 	ldw	r3,0(r4)
 8001fe8:	1009883a 	mov	r4,r2
 8001fec:	180b883a 	mov	r5,r3
 8001ff0:	000d883a 	mov	r6,zero
 8001ff4:	01cffc34 	movhi	r7,16368
 8001ff8:	800a5900 	call	800a590 <__adddf3>
 8001ffc:	1009883a 	mov	r4,r2
 8002000:	180b883a 	mov	r5,r3
 8002004:	2025883a 	mov	r18,r4
 8002008:	2827883a 	mov	r19,r5
 800200c:	d0a6f017 	ldw	r2,-25664(gp)
 8002010:	d126f104 	addi	r4,gp,-25660
 8002014:	20c00017 	ldw	r3,0(r4)
 8002018:	1009883a 	mov	r4,r2
 800201c:	180b883a 	mov	r5,r3
 8002020:	80054fc0 	call	80054fc <cos>
 8002024:	100f883a 	mov	r7,r2
 8002028:	1811883a 	mov	r8,r3
 800202c:	9009883a 	mov	r4,r18
 8002030:	980b883a 	mov	r5,r19
 8002034:	380d883a 	mov	r6,r7
 8002038:	400f883a 	mov	r7,r8
 800203c:	800b9f00 	call	800b9f0 <__muldf3>
 8002040:	1009883a 	mov	r4,r2
 8002044:	180b883a 	mov	r5,r3
 8002048:	2005883a 	mov	r2,r4
 800204c:	2807883a 	mov	r3,r5
 8002050:	8009883a 	mov	r4,r16
 8002054:	880b883a 	mov	r5,r17
 8002058:	100d883a 	mov	r6,r2
 800205c:	180f883a 	mov	r7,r3
 8002060:	800c25c0 	call	800c25c <__subdf3>
 8002064:	1009883a 	mov	r4,r2
 8002068:	180b883a 	mov	r5,r3
 800206c:	2005883a 	mov	r2,r4
 8002070:	2807883a 	mov	r3,r5
 8002074:	1009883a 	mov	r4,r2
 8002078:	180b883a 	mov	r5,r3
 800207c:	100d883a 	mov	r6,r2
 8002080:	180f883a 	mov	r7,r3
 8002084:	800a5900 	call	800a590 <__adddf3>
 8002088:	1009883a 	mov	r4,r2
 800208c:	180b883a 	mov	r5,r3
 8002090:	2005883a 	mov	r2,r4
 8002094:	2807883a 	mov	r3,r5
 8002098:	e0bff615 	stw	r2,-40(fp)
 800209c:	1920003c 	xorhi	r4,r3,32768
 80020a0:	e13ff715 	stw	r4,-36(fp)
 80020a4:	d0a6ff17 	ldw	r2,-25604(gp)
 80020a8:	d1270004 	addi	r4,gp,-25600
 80020ac:	20c00017 	ldw	r3,0(r4)
 80020b0:	e13ff617 	ldw	r4,-40(fp)
 80020b4:	e17ff717 	ldw	r5,-36(fp)
 80020b8:	100d883a 	mov	r6,r2
 80020bc:	180f883a 	mov	r7,r3
 80020c0:	800ae2c0 	call	800ae2c <__divdf3>
 80020c4:	1009883a 	mov	r4,r2
 80020c8:	180b883a 	mov	r5,r3
 80020cc:	2005883a 	mov	r2,r4
 80020d0:	2807883a 	mov	r3,r5
 80020d4:	d0a6ee15 	stw	r2,-25672(gp)
 80020d8:	d126ef04 	addi	r4,gp,-25668
 80020dc:	20c00015 	stw	r3,0(r4)
		a2 = -((A+1) - ((A-1)*cos(w0)) - (2*sqrt(A)*alpha))/a0;
 80020e0:	d0a6e717 	ldw	r2,-25700(gp)
 80020e4:	d126e804 	addi	r4,gp,-25696
 80020e8:	20c00017 	ldw	r3,0(r4)
 80020ec:	1009883a 	mov	r4,r2
 80020f0:	180b883a 	mov	r5,r3
 80020f4:	000d883a 	mov	r6,zero
 80020f8:	01cffc34 	movhi	r7,16368
 80020fc:	800a5900 	call	800a590 <__adddf3>
 8002100:	1009883a 	mov	r4,r2
 8002104:	180b883a 	mov	r5,r3
 8002108:	2021883a 	mov	r16,r4
 800210c:	2823883a 	mov	r17,r5
 8002110:	d0a6e717 	ldw	r2,-25700(gp)
 8002114:	d126e804 	addi	r4,gp,-25696
 8002118:	20c00017 	ldw	r3,0(r4)
 800211c:	1009883a 	mov	r4,r2
 8002120:	180b883a 	mov	r5,r3
 8002124:	000d883a 	mov	r6,zero
 8002128:	01cffc34 	movhi	r7,16368
 800212c:	800c25c0 	call	800c25c <__subdf3>
 8002130:	1009883a 	mov	r4,r2
 8002134:	180b883a 	mov	r5,r3
 8002138:	2025883a 	mov	r18,r4
 800213c:	2827883a 	mov	r19,r5
 8002140:	d0a6f017 	ldw	r2,-25664(gp)
 8002144:	d126f104 	addi	r4,gp,-25660
 8002148:	20c00017 	ldw	r3,0(r4)
 800214c:	1009883a 	mov	r4,r2
 8002150:	180b883a 	mov	r5,r3
 8002154:	80054fc0 	call	80054fc <cos>
 8002158:	100f883a 	mov	r7,r2
 800215c:	1811883a 	mov	r8,r3
 8002160:	9009883a 	mov	r4,r18
 8002164:	980b883a 	mov	r5,r19
 8002168:	380d883a 	mov	r6,r7
 800216c:	400f883a 	mov	r7,r8
 8002170:	800b9f00 	call	800b9f0 <__muldf3>
 8002174:	1009883a 	mov	r4,r2
 8002178:	180b883a 	mov	r5,r3
 800217c:	2005883a 	mov	r2,r4
 8002180:	2807883a 	mov	r3,r5
 8002184:	8009883a 	mov	r4,r16
 8002188:	880b883a 	mov	r5,r17
 800218c:	100d883a 	mov	r6,r2
 8002190:	180f883a 	mov	r7,r3
 8002194:	800c25c0 	call	800c25c <__subdf3>
 8002198:	1009883a 	mov	r4,r2
 800219c:	180b883a 	mov	r5,r3
 80021a0:	2021883a 	mov	r16,r4
 80021a4:	2823883a 	mov	r17,r5
 80021a8:	d0a6e717 	ldw	r2,-25700(gp)
 80021ac:	d126e804 	addi	r4,gp,-25696
 80021b0:	20c00017 	ldw	r3,0(r4)
 80021b4:	1009883a 	mov	r4,r2
 80021b8:	180b883a 	mov	r5,r3
 80021bc:	8005e1c0 	call	8005e1c <sqrt>
 80021c0:	100f883a 	mov	r7,r2
 80021c4:	1811883a 	mov	r8,r3
 80021c8:	3809883a 	mov	r4,r7
 80021cc:	400b883a 	mov	r5,r8
 80021d0:	380d883a 	mov	r6,r7
 80021d4:	400f883a 	mov	r7,r8
 80021d8:	800a5900 	call	800a590 <__adddf3>
 80021dc:	100f883a 	mov	r7,r2
 80021e0:	1811883a 	mov	r8,r3
 80021e4:	380b883a 	mov	r5,r7
 80021e8:	400d883a 	mov	r6,r8
 80021ec:	d0a70117 	ldw	r2,-25596(gp)
 80021f0:	d1270204 	addi	r4,gp,-25592
 80021f4:	20c00017 	ldw	r3,0(r4)
 80021f8:	2809883a 	mov	r4,r5
 80021fc:	300b883a 	mov	r5,r6
 8002200:	100d883a 	mov	r6,r2
 8002204:	180f883a 	mov	r7,r3
 8002208:	800b9f00 	call	800b9f0 <__muldf3>
 800220c:	1009883a 	mov	r4,r2
 8002210:	180b883a 	mov	r5,r3
 8002214:	2005883a 	mov	r2,r4
 8002218:	2807883a 	mov	r3,r5
 800221c:	8009883a 	mov	r4,r16
 8002220:	880b883a 	mov	r5,r17
 8002224:	100d883a 	mov	r6,r2
 8002228:	180f883a 	mov	r7,r3
 800222c:	800c25c0 	call	800c25c <__subdf3>
 8002230:	1009883a 	mov	r4,r2
 8002234:	180b883a 	mov	r5,r3
 8002238:	2005883a 	mov	r2,r4
 800223c:	2807883a 	mov	r3,r5
 8002240:	102d883a 	mov	r22,r2
 8002244:	1de0003c 	xorhi	r23,r3,32768
 8002248:	d0a6ff17 	ldw	r2,-25604(gp)
 800224c:	d1270004 	addi	r4,gp,-25600
 8002250:	20c00017 	ldw	r3,0(r4)
 8002254:	b009883a 	mov	r4,r22
 8002258:	b80b883a 	mov	r5,r23
 800225c:	100d883a 	mov	r6,r2
 8002260:	180f883a 	mov	r7,r3
 8002264:	800ae2c0 	call	800ae2c <__divdf3>
 8002268:	1009883a 	mov	r4,r2
 800226c:	180b883a 	mov	r5,r3
 8002270:	2005883a 	mov	r2,r4
 8002274:	2807883a 	mov	r3,r5
 8002278:	d0a6f915 	stw	r2,-25628(gp)
 800227c:	d126fa04 	addi	r4,gp,-25624
 8002280:	20c00015 	stw	r3,0(r4)
		break;
 8002284:	00016206 	br	8002810 <process_filter+0x1dd8>
	case 4: //low pass
		b0 = ((1-cos(w0))/(2))/a0;
 8002288:	d0a6f017 	ldw	r2,-25664(gp)
 800228c:	d126f104 	addi	r4,gp,-25660
 8002290:	20c00017 	ldw	r3,0(r4)
 8002294:	1009883a 	mov	r4,r2
 8002298:	180b883a 	mov	r5,r3
 800229c:	80054fc0 	call	80054fc <cos>
 80022a0:	100f883a 	mov	r7,r2
 80022a4:	1811883a 	mov	r8,r3
 80022a8:	0009883a 	mov	r4,zero
 80022ac:	014ffc34 	movhi	r5,16368
 80022b0:	380d883a 	mov	r6,r7
 80022b4:	400f883a 	mov	r7,r8
 80022b8:	800c25c0 	call	800c25c <__subdf3>
 80022bc:	1009883a 	mov	r4,r2
 80022c0:	180b883a 	mov	r5,r3
 80022c4:	2005883a 	mov	r2,r4
 80022c8:	2807883a 	mov	r3,r5
 80022cc:	1009883a 	mov	r4,r2
 80022d0:	180b883a 	mov	r5,r3
 80022d4:	000d883a 	mov	r6,zero
 80022d8:	01d00034 	movhi	r7,16384
 80022dc:	800ae2c0 	call	800ae2c <__divdf3>
 80022e0:	100f883a 	mov	r7,r2
 80022e4:	1811883a 	mov	r8,r3
 80022e8:	380b883a 	mov	r5,r7
 80022ec:	400d883a 	mov	r6,r8
 80022f0:	d0a6ff17 	ldw	r2,-25604(gp)
 80022f4:	d1270004 	addi	r4,gp,-25600
 80022f8:	20c00017 	ldw	r3,0(r4)
 80022fc:	2809883a 	mov	r4,r5
 8002300:	300b883a 	mov	r5,r6
 8002304:	100d883a 	mov	r6,r2
 8002308:	180f883a 	mov	r7,r3
 800230c:	800ae2c0 	call	800ae2c <__divdf3>
 8002310:	1009883a 	mov	r4,r2
 8002314:	180b883a 	mov	r5,r3
 8002318:	2005883a 	mov	r2,r4
 800231c:	2807883a 	mov	r3,r5
 8002320:	d0a6fd15 	stw	r2,-25612(gp)
 8002324:	d126fe04 	addi	r4,gp,-25608
 8002328:	20c00015 	stw	r3,0(r4)
		b1 = (1-cos(w0))/a0;
 800232c:	d0a6f017 	ldw	r2,-25664(gp)
 8002330:	d126f104 	addi	r4,gp,-25660
 8002334:	20c00017 	ldw	r3,0(r4)
 8002338:	1009883a 	mov	r4,r2
 800233c:	180b883a 	mov	r5,r3
 8002340:	80054fc0 	call	80054fc <cos>
 8002344:	100f883a 	mov	r7,r2
 8002348:	1811883a 	mov	r8,r3
 800234c:	0009883a 	mov	r4,zero
 8002350:	014ffc34 	movhi	r5,16368
 8002354:	380d883a 	mov	r6,r7
 8002358:	400f883a 	mov	r7,r8
 800235c:	800c25c0 	call	800c25c <__subdf3>
 8002360:	100f883a 	mov	r7,r2
 8002364:	1811883a 	mov	r8,r3
 8002368:	380b883a 	mov	r5,r7
 800236c:	400d883a 	mov	r6,r8
 8002370:	d0a6ff17 	ldw	r2,-25604(gp)
 8002374:	d1270004 	addi	r4,gp,-25600
 8002378:	20c00017 	ldw	r3,0(r4)
 800237c:	2809883a 	mov	r4,r5
 8002380:	300b883a 	mov	r5,r6
 8002384:	100d883a 	mov	r6,r2
 8002388:	180f883a 	mov	r7,r3
 800238c:	800ae2c0 	call	800ae2c <__divdf3>
 8002390:	1009883a 	mov	r4,r2
 8002394:	180b883a 	mov	r5,r3
 8002398:	2005883a 	mov	r2,r4
 800239c:	2807883a 	mov	r3,r5
 80023a0:	d0a6ec15 	stw	r2,-25680(gp)
 80023a4:	d126ed04 	addi	r4,gp,-25676
 80023a8:	20c00015 	stw	r3,0(r4)
		b2 = ((1-cos(w0))/(2))/a0;
 80023ac:	d0a6f017 	ldw	r2,-25664(gp)
 80023b0:	d126f104 	addi	r4,gp,-25660
 80023b4:	20c00017 	ldw	r3,0(r4)
 80023b8:	1009883a 	mov	r4,r2
 80023bc:	180b883a 	mov	r5,r3
 80023c0:	80054fc0 	call	80054fc <cos>
 80023c4:	100f883a 	mov	r7,r2
 80023c8:	1811883a 	mov	r8,r3
 80023cc:	0009883a 	mov	r4,zero
 80023d0:	014ffc34 	movhi	r5,16368
 80023d4:	380d883a 	mov	r6,r7
 80023d8:	400f883a 	mov	r7,r8
 80023dc:	800c25c0 	call	800c25c <__subdf3>
 80023e0:	1009883a 	mov	r4,r2
 80023e4:	180b883a 	mov	r5,r3
 80023e8:	2005883a 	mov	r2,r4
 80023ec:	2807883a 	mov	r3,r5
 80023f0:	1009883a 	mov	r4,r2
 80023f4:	180b883a 	mov	r5,r3
 80023f8:	000d883a 	mov	r6,zero
 80023fc:	01d00034 	movhi	r7,16384
 8002400:	800ae2c0 	call	800ae2c <__divdf3>
 8002404:	100f883a 	mov	r7,r2
 8002408:	1811883a 	mov	r8,r3
 800240c:	380b883a 	mov	r5,r7
 8002410:	400d883a 	mov	r6,r8
 8002414:	d0a6ff17 	ldw	r2,-25604(gp)
 8002418:	d1270004 	addi	r4,gp,-25600
 800241c:	20c00017 	ldw	r3,0(r4)
 8002420:	2809883a 	mov	r4,r5
 8002424:	300b883a 	mov	r5,r6
 8002428:	100d883a 	mov	r6,r2
 800242c:	180f883a 	mov	r7,r3
 8002430:	800ae2c0 	call	800ae2c <__divdf3>
 8002434:	1009883a 	mov	r4,r2
 8002438:	180b883a 	mov	r5,r3
 800243c:	2005883a 	mov	r2,r4
 8002440:	2807883a 	mov	r3,r5
 8002444:	d0a6e415 	stw	r2,-25712(gp)
 8002448:	d126e504 	addi	r4,gp,-25708
 800244c:	20c00015 	stw	r3,0(r4)
		a1 = -(-2*cos(w0))/a0;
 8002450:	d0a6f017 	ldw	r2,-25664(gp)
 8002454:	d126f104 	addi	r4,gp,-25660
 8002458:	20c00017 	ldw	r3,0(r4)
 800245c:	1009883a 	mov	r4,r2
 8002460:	180b883a 	mov	r5,r3
 8002464:	80054fc0 	call	80054fc <cos>
 8002468:	100f883a 	mov	r7,r2
 800246c:	1811883a 	mov	r8,r3
 8002470:	3809883a 	mov	r4,r7
 8002474:	400b883a 	mov	r5,r8
 8002478:	380d883a 	mov	r6,r7
 800247c:	400f883a 	mov	r7,r8
 8002480:	800a5900 	call	800a590 <__adddf3>
 8002484:	100f883a 	mov	r7,r2
 8002488:	1811883a 	mov	r8,r3
 800248c:	380b883a 	mov	r5,r7
 8002490:	400d883a 	mov	r6,r8
 8002494:	d0a6ff17 	ldw	r2,-25604(gp)
 8002498:	d1270004 	addi	r4,gp,-25600
 800249c:	20c00017 	ldw	r3,0(r4)
 80024a0:	2809883a 	mov	r4,r5
 80024a4:	300b883a 	mov	r5,r6
 80024a8:	100d883a 	mov	r6,r2
 80024ac:	180f883a 	mov	r7,r3
 80024b0:	800ae2c0 	call	800ae2c <__divdf3>
 80024b4:	1009883a 	mov	r4,r2
 80024b8:	180b883a 	mov	r5,r3
 80024bc:	2005883a 	mov	r2,r4
 80024c0:	2807883a 	mov	r3,r5
 80024c4:	d0a6ee15 	stw	r2,-25672(gp)
 80024c8:	d126ef04 	addi	r4,gp,-25668
 80024cc:	20c00015 	stw	r3,0(r4)
		a2 = -(1-alpha)/a0;
 80024d0:	d0a70117 	ldw	r2,-25596(gp)
 80024d4:	d1270204 	addi	r4,gp,-25592
 80024d8:	20c00017 	ldw	r3,0(r4)
 80024dc:	0009883a 	mov	r4,zero
 80024e0:	014ffc34 	movhi	r5,16368
 80024e4:	100d883a 	mov	r6,r2
 80024e8:	180f883a 	mov	r7,r3
 80024ec:	800c25c0 	call	800c25c <__subdf3>
 80024f0:	1009883a 	mov	r4,r2
 80024f4:	180b883a 	mov	r5,r3
 80024f8:	2005883a 	mov	r2,r4
 80024fc:	2807883a 	mov	r3,r5
 8002500:	1029883a 	mov	r20,r2
 8002504:	1d60003c 	xorhi	r21,r3,32768
 8002508:	d0a6ff17 	ldw	r2,-25604(gp)
 800250c:	d1270004 	addi	r4,gp,-25600
 8002510:	20c00017 	ldw	r3,0(r4)
 8002514:	a009883a 	mov	r4,r20
 8002518:	a80b883a 	mov	r5,r21
 800251c:	100d883a 	mov	r6,r2
 8002520:	180f883a 	mov	r7,r3
 8002524:	800ae2c0 	call	800ae2c <__divdf3>
 8002528:	1009883a 	mov	r4,r2
 800252c:	180b883a 	mov	r5,r3
 8002530:	2005883a 	mov	r2,r4
 8002534:	2807883a 	mov	r3,r5
 8002538:	d0a6f915 	stw	r2,-25628(gp)
 800253c:	d126fa04 	addi	r4,gp,-25624
 8002540:	20c00015 	stw	r3,0(r4)
		break;
 8002544:	0000b206 	br	8002810 <process_filter+0x1dd8>
	case 5: //high pass
		b0 = ((1+cos(w0))/(2))/a0;
 8002548:	d0a6f017 	ldw	r2,-25664(gp)
 800254c:	d126f104 	addi	r4,gp,-25660
 8002550:	20c00017 	ldw	r3,0(r4)
 8002554:	1009883a 	mov	r4,r2
 8002558:	180b883a 	mov	r5,r3
 800255c:	80054fc0 	call	80054fc <cos>
 8002560:	100b883a 	mov	r5,r2
 8002564:	180d883a 	mov	r6,r3
 8002568:	2809883a 	mov	r4,r5
 800256c:	300b883a 	mov	r5,r6
 8002570:	000d883a 	mov	r6,zero
 8002574:	01cffc34 	movhi	r7,16368
 8002578:	800a5900 	call	800a590 <__adddf3>
 800257c:	1009883a 	mov	r4,r2
 8002580:	180b883a 	mov	r5,r3
 8002584:	2005883a 	mov	r2,r4
 8002588:	2807883a 	mov	r3,r5
 800258c:	1009883a 	mov	r4,r2
 8002590:	180b883a 	mov	r5,r3
 8002594:	000d883a 	mov	r6,zero
 8002598:	01d00034 	movhi	r7,16384
 800259c:	800ae2c0 	call	800ae2c <__divdf3>
 80025a0:	100f883a 	mov	r7,r2
 80025a4:	1811883a 	mov	r8,r3
 80025a8:	380b883a 	mov	r5,r7
 80025ac:	400d883a 	mov	r6,r8
 80025b0:	d0a6ff17 	ldw	r2,-25604(gp)
 80025b4:	d1270004 	addi	r4,gp,-25600
 80025b8:	20c00017 	ldw	r3,0(r4)
 80025bc:	2809883a 	mov	r4,r5
 80025c0:	300b883a 	mov	r5,r6
 80025c4:	100d883a 	mov	r6,r2
 80025c8:	180f883a 	mov	r7,r3
 80025cc:	800ae2c0 	call	800ae2c <__divdf3>
 80025d0:	1009883a 	mov	r4,r2
 80025d4:	180b883a 	mov	r5,r3
 80025d8:	2005883a 	mov	r2,r4
 80025dc:	2807883a 	mov	r3,r5
 80025e0:	d0a6fd15 	stw	r2,-25612(gp)
 80025e4:	d126fe04 	addi	r4,gp,-25608
 80025e8:	20c00015 	stw	r3,0(r4)
		b1 = -(1+cos(w0))/a0;
 80025ec:	d0a6f017 	ldw	r2,-25664(gp)
 80025f0:	d126f104 	addi	r4,gp,-25660
 80025f4:	20c00017 	ldw	r3,0(r4)
 80025f8:	1009883a 	mov	r4,r2
 80025fc:	180b883a 	mov	r5,r3
 8002600:	80054fc0 	call	80054fc <cos>
 8002604:	100b883a 	mov	r5,r2
 8002608:	180d883a 	mov	r6,r3
 800260c:	2809883a 	mov	r4,r5
 8002610:	300b883a 	mov	r5,r6
 8002614:	000d883a 	mov	r6,zero
 8002618:	01cffc34 	movhi	r7,16368
 800261c:	800a5900 	call	800a590 <__adddf3>
 8002620:	1009883a 	mov	r4,r2
 8002624:	180b883a 	mov	r5,r3
 8002628:	2005883a 	mov	r2,r4
 800262c:	2807883a 	mov	r3,r5
 8002630:	1025883a 	mov	r18,r2
 8002634:	1ce0003c 	xorhi	r19,r3,32768
 8002638:	d0a6ff17 	ldw	r2,-25604(gp)
 800263c:	d1270004 	addi	r4,gp,-25600
 8002640:	20c00017 	ldw	r3,0(r4)
 8002644:	9009883a 	mov	r4,r18
 8002648:	980b883a 	mov	r5,r19
 800264c:	100d883a 	mov	r6,r2
 8002650:	180f883a 	mov	r7,r3
 8002654:	800ae2c0 	call	800ae2c <__divdf3>
 8002658:	1009883a 	mov	r4,r2
 800265c:	180b883a 	mov	r5,r3
 8002660:	2005883a 	mov	r2,r4
 8002664:	2807883a 	mov	r3,r5
 8002668:	d0a6ec15 	stw	r2,-25680(gp)
 800266c:	d126ed04 	addi	r4,gp,-25676
 8002670:	20c00015 	stw	r3,0(r4)
		b2 = ((1+cos(w0))/(2))/a0;
 8002674:	d0a6f017 	ldw	r2,-25664(gp)
 8002678:	d126f104 	addi	r4,gp,-25660
 800267c:	20c00017 	ldw	r3,0(r4)
 8002680:	1009883a 	mov	r4,r2
 8002684:	180b883a 	mov	r5,r3
 8002688:	80054fc0 	call	80054fc <cos>
 800268c:	100b883a 	mov	r5,r2
 8002690:	180d883a 	mov	r6,r3
 8002694:	2809883a 	mov	r4,r5
 8002698:	300b883a 	mov	r5,r6
 800269c:	000d883a 	mov	r6,zero
 80026a0:	01cffc34 	movhi	r7,16368
 80026a4:	800a5900 	call	800a590 <__adddf3>
 80026a8:	1009883a 	mov	r4,r2
 80026ac:	180b883a 	mov	r5,r3
 80026b0:	2005883a 	mov	r2,r4
 80026b4:	2807883a 	mov	r3,r5
 80026b8:	1009883a 	mov	r4,r2
 80026bc:	180b883a 	mov	r5,r3
 80026c0:	000d883a 	mov	r6,zero
 80026c4:	01d00034 	movhi	r7,16384
 80026c8:	800ae2c0 	call	800ae2c <__divdf3>
 80026cc:	100f883a 	mov	r7,r2
 80026d0:	1811883a 	mov	r8,r3
 80026d4:	380b883a 	mov	r5,r7
 80026d8:	400d883a 	mov	r6,r8
 80026dc:	d0a6ff17 	ldw	r2,-25604(gp)
 80026e0:	d1270004 	addi	r4,gp,-25600
 80026e4:	20c00017 	ldw	r3,0(r4)
 80026e8:	2809883a 	mov	r4,r5
 80026ec:	300b883a 	mov	r5,r6
 80026f0:	100d883a 	mov	r6,r2
 80026f4:	180f883a 	mov	r7,r3
 80026f8:	800ae2c0 	call	800ae2c <__divdf3>
 80026fc:	1009883a 	mov	r4,r2
 8002700:	180b883a 	mov	r5,r3
 8002704:	2005883a 	mov	r2,r4
 8002708:	2807883a 	mov	r3,r5
 800270c:	d0a6e415 	stw	r2,-25712(gp)
 8002710:	d126e504 	addi	r4,gp,-25708
 8002714:	20c00015 	stw	r3,0(r4)
		a1 = -(-2*cos(w0))/a0;
 8002718:	d0a6f017 	ldw	r2,-25664(gp)
 800271c:	d126f104 	addi	r4,gp,-25660
 8002720:	20c00017 	ldw	r3,0(r4)
 8002724:	1009883a 	mov	r4,r2
 8002728:	180b883a 	mov	r5,r3
 800272c:	80054fc0 	call	80054fc <cos>
 8002730:	100f883a 	mov	r7,r2
 8002734:	1811883a 	mov	r8,r3
 8002738:	3809883a 	mov	r4,r7
 800273c:	400b883a 	mov	r5,r8
 8002740:	380d883a 	mov	r6,r7
 8002744:	400f883a 	mov	r7,r8
 8002748:	800a5900 	call	800a590 <__adddf3>
 800274c:	100f883a 	mov	r7,r2
 8002750:	1811883a 	mov	r8,r3
 8002754:	380b883a 	mov	r5,r7
 8002758:	400d883a 	mov	r6,r8
 800275c:	d0a6ff17 	ldw	r2,-25604(gp)
 8002760:	d1270004 	addi	r4,gp,-25600
 8002764:	20c00017 	ldw	r3,0(r4)
 8002768:	2809883a 	mov	r4,r5
 800276c:	300b883a 	mov	r5,r6
 8002770:	100d883a 	mov	r6,r2
 8002774:	180f883a 	mov	r7,r3
 8002778:	800ae2c0 	call	800ae2c <__divdf3>
 800277c:	1009883a 	mov	r4,r2
 8002780:	180b883a 	mov	r5,r3
 8002784:	2005883a 	mov	r2,r4
 8002788:	2807883a 	mov	r3,r5
 800278c:	d0a6ee15 	stw	r2,-25672(gp)
 8002790:	d126ef04 	addi	r4,gp,-25668
 8002794:	20c00015 	stw	r3,0(r4)
		a2 = -(1-alpha)/a0;
 8002798:	d0a70117 	ldw	r2,-25596(gp)
 800279c:	d1270204 	addi	r4,gp,-25592
 80027a0:	20c00017 	ldw	r3,0(r4)
 80027a4:	0009883a 	mov	r4,zero
 80027a8:	014ffc34 	movhi	r5,16368
 80027ac:	100d883a 	mov	r6,r2
 80027b0:	180f883a 	mov	r7,r3
 80027b4:	800c25c0 	call	800c25c <__subdf3>
 80027b8:	1009883a 	mov	r4,r2
 80027bc:	180b883a 	mov	r5,r3
 80027c0:	2005883a 	mov	r2,r4
 80027c4:	2807883a 	mov	r3,r5
 80027c8:	1021883a 	mov	r16,r2
 80027cc:	1c60003c 	xorhi	r17,r3,32768
 80027d0:	d0a6ff17 	ldw	r2,-25604(gp)
 80027d4:	d1270004 	addi	r4,gp,-25600
 80027d8:	20c00017 	ldw	r3,0(r4)
 80027dc:	8009883a 	mov	r4,r16
 80027e0:	880b883a 	mov	r5,r17
 80027e4:	100d883a 	mov	r6,r2
 80027e8:	180f883a 	mov	r7,r3
 80027ec:	800ae2c0 	call	800ae2c <__divdf3>
 80027f0:	1009883a 	mov	r4,r2
 80027f4:	180b883a 	mov	r5,r3
 80027f8:	2005883a 	mov	r2,r4
 80027fc:	2807883a 	mov	r3,r5
 8002800:	d0a6f915 	stw	r2,-25628(gp)
 8002804:	d126fa04 	addi	r4,gp,-25624
 8002808:	20c00015 	stw	r3,0(r4)
		break;
 800280c:	0001883a 	nop
	}

	printf("b0: %Lf, b1: %Lf, b2: %Lf, a1: %Lf, a2: %Lf\n", b0, b1, b2, a1, a2);
 8002810:	d2a6fd17 	ldw	r10,-25612(gp)
 8002814:	d0a6fe04 	addi	r2,gp,-25608
 8002818:	12c00017 	ldw	r11,0(r2)
 800281c:	d226ec17 	ldw	r8,-25680(gp)
 8002820:	d0a6ed04 	addi	r2,gp,-25676
 8002824:	12400017 	ldw	r9,0(r2)
 8002828:	d1a6e417 	ldw	r6,-25712(gp)
 800282c:	d0a6e504 	addi	r2,gp,-25708
 8002830:	11c00017 	ldw	r7,0(r2)
 8002834:	d126ee17 	ldw	r4,-25672(gp)
 8002838:	d0a6ef04 	addi	r2,gp,-25668
 800283c:	11400017 	ldw	r5,0(r2)
 8002840:	d0a6f917 	ldw	r2,-25628(gp)
 8002844:	d326fa04 	addi	r12,gp,-25624
 8002848:	60c00017 	ldw	r3,0(r12)
 800284c:	d9800115 	stw	r6,4(sp)
 8002850:	d9c00215 	stw	r7,8(sp)
 8002854:	d9000315 	stw	r4,12(sp)
 8002858:	d9400415 	stw	r5,16(sp)
 800285c:	d8800515 	stw	r2,20(sp)
 8002860:	d8c00615 	stw	r3,24(sp)
 8002864:	da400015 	stw	r9,0(sp)
 8002868:	400f883a 	mov	r7,r8
 800286c:	010200b4 	movhi	r4,2050
 8002870:	213e3104 	addi	r4,r4,-1852
 8002874:	500b883a 	mov	r5,r10
 8002878:	580d883a 	mov	r6,r11
 800287c:	800cfec0 	call	800cfec <printf>
	long double coeffs[5];
	coeffs[0] = b0;
 8002880:	d0a6fd17 	ldw	r2,-25612(gp)
 8002884:	d126fe04 	addi	r4,gp,-25608
 8002888:	20c00017 	ldw	r3,0(r4)
 800288c:	e0bfd715 	stw	r2,-164(fp)
 8002890:	e0ffd815 	stw	r3,-160(fp)
	coeffs[1] = b1;
 8002894:	d0a6ec17 	ldw	r2,-25680(gp)
 8002898:	d126ed04 	addi	r4,gp,-25676
 800289c:	20c00017 	ldw	r3,0(r4)
 80028a0:	e0bfd915 	stw	r2,-156(fp)
 80028a4:	e0ffda15 	stw	r3,-152(fp)
	coeffs[2] = b2;
 80028a8:	d0a6e417 	ldw	r2,-25712(gp)
 80028ac:	d126e504 	addi	r4,gp,-25708
 80028b0:	20c00017 	ldw	r3,0(r4)
 80028b4:	e0bfdb15 	stw	r2,-148(fp)
 80028b8:	e0ffdc15 	stw	r3,-144(fp)
	coeffs[3] = a1;
 80028bc:	d0a6ee17 	ldw	r2,-25672(gp)
 80028c0:	d126ef04 	addi	r4,gp,-25668
 80028c4:	20c00017 	ldw	r3,0(r4)
 80028c8:	e0bfdd15 	stw	r2,-140(fp)
 80028cc:	e0ffde15 	stw	r3,-136(fp)
	coeffs[4] = a2;
 80028d0:	d0a6f917 	ldw	r2,-25628(gp)
 80028d4:	d126fa04 	addi	r4,gp,-25624
 80028d8:	20c00017 	ldw	r3,0(r4)
 80028dc:	e0bfdf15 	stw	r2,-132(fp)
 80028e0:	e0ffe015 	stw	r3,-128(fp)
	int i;
	char F_str[4];
	char G_str[4];
	char Q_str[4];
	// Calculate displayed signals
	*biquad_index = biquad - 1;
 80028e4:	00881c04 	movi	r2,8304
 80028e8:	d0e6f217 	ldw	r3,-25656(gp)
 80028ec:	18ffffc4 	addi	r3,r3,-1
 80028f0:	10c00005 	stb	r3,0(r2)
	*type_index = type;
 80028f4:	00880804 	movi	r2,8224
 80028f8:	d0e6e617 	ldw	r3,-25704(gp)
 80028fc:	10c00005 	stb	r3,0(r2)
	if (F >= 10000) {
 8002900:	d0a70317 	ldw	r2,-25588(gp)
 8002904:	1089c410 	cmplti	r2,r2,10000
 8002908:	10001c1e 	bne	r2,zero,800297c <process_filter+0x1f44>
		sprintf(F_str, "%3d", (int) ((double) F / 1000));
 800290c:	d0a70317 	ldw	r2,-25588(gp)
 8002910:	1009883a 	mov	r4,r2
 8002914:	800cbb40 	call	800cbb4 <__floatsidf>
 8002918:	100b883a 	mov	r5,r2
 800291c:	180d883a 	mov	r6,r3
 8002920:	2809883a 	mov	r4,r5
 8002924:	300b883a 	mov	r5,r6
 8002928:	000d883a 	mov	r6,zero
 800292c:	01d023f4 	movhi	r7,16527
 8002930:	39d00004 	addi	r7,r7,16384
 8002934:	800ae2c0 	call	800ae2c <__divdf3>
 8002938:	1009883a 	mov	r4,r2
 800293c:	180b883a 	mov	r5,r3
 8002940:	2005883a 	mov	r2,r4
 8002944:	2807883a 	mov	r3,r5
 8002948:	1009883a 	mov	r4,r2
 800294c:	180b883a 	mov	r5,r3
 8002950:	800cb2c0 	call	800cb2c <__fixdfsi>
 8002954:	1007883a 	mov	r3,r2
 8002958:	e0bfe104 	addi	r2,fp,-124
 800295c:	1009883a 	mov	r4,r2
 8002960:	014200b4 	movhi	r5,2050
 8002964:	297e3d04 	addi	r5,r5,-1804
 8002968:	180d883a 	mov	r6,r3
 800296c:	800d14c0 	call	800d14c <sprintf>
		F_str[3] = 'K';
 8002970:	008012c4 	movi	r2,75
 8002974:	e0bfe1c5 	stb	r2,-121(fp)
 8002978:	00002206 	br	8002a04 <process_filter+0x1fcc>
	} else if (F >= 1000) {
 800297c:	d0a70317 	ldw	r2,-25588(gp)
 8002980:	1080fa10 	cmplti	r2,r2,1000
 8002984:	1000181e 	bne	r2,zero,80029e8 <process_filter+0x1fb0>
		sprintf(F_str, "%3f", (double) F / 1000);
 8002988:	d0a70317 	ldw	r2,-25588(gp)
 800298c:	1009883a 	mov	r4,r2
 8002990:	800cbb40 	call	800cbb4 <__floatsidf>
 8002994:	100b883a 	mov	r5,r2
 8002998:	180d883a 	mov	r6,r3
 800299c:	2809883a 	mov	r4,r5
 80029a0:	300b883a 	mov	r5,r6
 80029a4:	000d883a 	mov	r6,zero
 80029a8:	01d023f4 	movhi	r7,16527
 80029ac:	39d00004 	addi	r7,r7,16384
 80029b0:	800ae2c0 	call	800ae2c <__divdf3>
 80029b4:	1009883a 	mov	r4,r2
 80029b8:	180b883a 	mov	r5,r3
 80029bc:	2005883a 	mov	r2,r4
 80029c0:	2807883a 	mov	r3,r5
 80029c4:	e13fe104 	addi	r4,fp,-124
 80029c8:	014200b4 	movhi	r5,2050
 80029cc:	297e3e04 	addi	r5,r5,-1800
 80029d0:	100d883a 	mov	r6,r2
 80029d4:	180f883a 	mov	r7,r3
 80029d8:	800d14c0 	call	800d14c <sprintf>
		F_str[3] = 'K';
 80029dc:	008012c4 	movi	r2,75
 80029e0:	e0bfe1c5 	stb	r2,-121(fp)
 80029e4:	00000706 	br	8002a04 <process_filter+0x1fcc>
	} else {
		sprintf(F_str, "%4d", F);
 80029e8:	d0a70317 	ldw	r2,-25588(gp)
 80029ec:	e0ffe104 	addi	r3,fp,-124
 80029f0:	1809883a 	mov	r4,r3
 80029f4:	014200b4 	movhi	r5,2050
 80029f8:	297e3f04 	addi	r5,r5,-1796
 80029fc:	100d883a 	mov	r6,r2
 8002a00:	800d14c0 	call	800d14c <sprintf>
	}
	*F_string = (F_str[0] << 24) | (F_str[1] << 16) | (F_str[2] << 8) | F_str[3];
 8002a04:	00881004 	movi	r2,8256
 8002a08:	e0ffe103 	ldbu	r3,-124(fp)
 8002a0c:	18c03fcc 	andi	r3,r3,255
 8002a10:	18c0201c 	xori	r3,r3,128
 8002a14:	18ffe004 	addi	r3,r3,-128
 8002a18:	1808963a 	slli	r4,r3,24
 8002a1c:	e0ffe143 	ldbu	r3,-123(fp)
 8002a20:	18c03fcc 	andi	r3,r3,255
 8002a24:	18c0201c 	xori	r3,r3,128
 8002a28:	18ffe004 	addi	r3,r3,-128
 8002a2c:	1806943a 	slli	r3,r3,16
 8002a30:	20c8b03a 	or	r4,r4,r3
 8002a34:	e0ffe183 	ldbu	r3,-122(fp)
 8002a38:	18c03fcc 	andi	r3,r3,255
 8002a3c:	18c0201c 	xori	r3,r3,128
 8002a40:	18ffe004 	addi	r3,r3,-128
 8002a44:	1806923a 	slli	r3,r3,8
 8002a48:	20c8b03a 	or	r4,r4,r3
 8002a4c:	e0ffe1c3 	ldbu	r3,-121(fp)
 8002a50:	18c03fcc 	andi	r3,r3,255
 8002a54:	18c0201c 	xori	r3,r3,128
 8002a58:	18ffe004 	addi	r3,r3,-128
 8002a5c:	20c6b03a 	or	r3,r4,r3
 8002a60:	10c00015 	stw	r3,0(r2)

	if (G <= -10) {
 8002a64:	d0a6f317 	ldw	r2,-25652(gp)
 8002a68:	d126f404 	addi	r4,gp,-25648
 8002a6c:	20c00017 	ldw	r3,0(r4)
 8002a70:	1009883a 	mov	r4,r2
 8002a74:	180b883a 	mov	r5,r3
 8002a78:	000d883a 	mov	r6,zero
 8002a7c:	01f00934 	movhi	r7,49188
 8002a80:	800b9100 	call	800b910 <__ledf2>
 8002a84:	00801316 	blt	zero,r2,8002ad4 <process_filter+0x209c>
		sprintf(G_str, "%4d", (int) round(G));
 8002a88:	d0a6f317 	ldw	r2,-25652(gp)
 8002a8c:	d126f404 	addi	r4,gp,-25648
 8002a90:	20c00017 	ldw	r3,0(r4)
 8002a94:	1009883a 	mov	r4,r2
 8002a98:	180b883a 	mov	r5,r3
 8002a9c:	80055e80 	call	80055e8 <round>
 8002aa0:	100b883a 	mov	r5,r2
 8002aa4:	180d883a 	mov	r6,r3
 8002aa8:	2809883a 	mov	r4,r5
 8002aac:	300b883a 	mov	r5,r6
 8002ab0:	800cb2c0 	call	800cb2c <__fixdfsi>
 8002ab4:	1007883a 	mov	r3,r2
 8002ab8:	e0bfe204 	addi	r2,fp,-120
 8002abc:	1009883a 	mov	r4,r2
 8002ac0:	014200b4 	movhi	r5,2050
 8002ac4:	297e3f04 	addi	r5,r5,-1796
 8002ac8:	180d883a 	mov	r6,r3
 8002acc:	800d14c0 	call	800d14c <sprintf>
 8002ad0:	00000906 	br	8002af8 <process_filter+0x20c0>
	} else {
		sprintf(G_str, "%4f", G);
 8002ad4:	d0a6f317 	ldw	r2,-25652(gp)
 8002ad8:	d126f404 	addi	r4,gp,-25648
 8002adc:	20c00017 	ldw	r3,0(r4)
 8002ae0:	e13fe204 	addi	r4,fp,-120
 8002ae4:	014200b4 	movhi	r5,2050
 8002ae8:	297e4004 	addi	r5,r5,-1792
 8002aec:	100d883a 	mov	r6,r2
 8002af0:	180f883a 	mov	r7,r3
 8002af4:	800d14c0 	call	800d14c <sprintf>
	}
	*G_string = (G_str[0] << 24) | (G_str[1] << 16) | (G_str[2] << 8) | G_str[3];
 8002af8:	00880c04 	movi	r2,8240
 8002afc:	e0ffe203 	ldbu	r3,-120(fp)
 8002b00:	18c03fcc 	andi	r3,r3,255
 8002b04:	18c0201c 	xori	r3,r3,128
 8002b08:	18ffe004 	addi	r3,r3,-128
 8002b0c:	1808963a 	slli	r4,r3,24
 8002b10:	e0ffe243 	ldbu	r3,-119(fp)
 8002b14:	18c03fcc 	andi	r3,r3,255
 8002b18:	18c0201c 	xori	r3,r3,128
 8002b1c:	18ffe004 	addi	r3,r3,-128
 8002b20:	1806943a 	slli	r3,r3,16
 8002b24:	20c8b03a 	or	r4,r4,r3
 8002b28:	e0ffe283 	ldbu	r3,-118(fp)
 8002b2c:	18c03fcc 	andi	r3,r3,255
 8002b30:	18c0201c 	xori	r3,r3,128
 8002b34:	18ffe004 	addi	r3,r3,-128
 8002b38:	1806923a 	slli	r3,r3,8
 8002b3c:	20c8b03a 	or	r4,r4,r3
 8002b40:	e0ffe2c3 	ldbu	r3,-117(fp)
 8002b44:	18c03fcc 	andi	r3,r3,255
 8002b48:	18c0201c 	xori	r3,r3,128
 8002b4c:	18ffe004 	addi	r3,r3,-128
 8002b50:	20c6b03a 	or	r3,r4,r3
 8002b54:	10c00015 	stw	r3,0(r2)

	sprintf(Q_str, "%4f", Q);
 8002b58:	d0a6ea17 	ldw	r2,-25688(gp)
 8002b5c:	d126eb04 	addi	r4,gp,-25684
 8002b60:	20c00017 	ldw	r3,0(r4)
 8002b64:	e13fe304 	addi	r4,fp,-116
 8002b68:	014200b4 	movhi	r5,2050
 8002b6c:	297e4004 	addi	r5,r5,-1792
 8002b70:	100d883a 	mov	r6,r2
 8002b74:	180f883a 	mov	r7,r3
 8002b78:	800d14c0 	call	800d14c <sprintf>
	*Q_string = (Q_str[0] << 24) | (Q_str[1] << 16) | (Q_str[2] << 8) | Q_str[3];
 8002b7c:	00880404 	movi	r2,8208
 8002b80:	e0ffe303 	ldbu	r3,-116(fp)
 8002b84:	18c03fcc 	andi	r3,r3,255
 8002b88:	18c0201c 	xori	r3,r3,128
 8002b8c:	18ffe004 	addi	r3,r3,-128
 8002b90:	1808963a 	slli	r4,r3,24
 8002b94:	e0ffe343 	ldbu	r3,-115(fp)
 8002b98:	18c03fcc 	andi	r3,r3,255
 8002b9c:	18c0201c 	xori	r3,r3,128
 8002ba0:	18ffe004 	addi	r3,r3,-128
 8002ba4:	1806943a 	slli	r3,r3,16
 8002ba8:	20c8b03a 	or	r4,r4,r3
 8002bac:	e0ffe383 	ldbu	r3,-114(fp)
 8002bb0:	18c03fcc 	andi	r3,r3,255
 8002bb4:	18c0201c 	xori	r3,r3,128
 8002bb8:	18ffe004 	addi	r3,r3,-128
 8002bbc:	1806923a 	slli	r3,r3,8
 8002bc0:	20c8b03a 	or	r4,r4,r3
 8002bc4:	e0ffe3c3 	ldbu	r3,-113(fp)
 8002bc8:	18c03fcc 	andi	r3,r3,255
 8002bcc:	18c0201c 	xori	r3,r3,128
 8002bd0:	18ffe004 	addi	r3,r3,-128
 8002bd4:	20c6b03a 	or	r3,r4,r3
 8002bd8:	10c00015 	stw	r3,0(r2)

	for (i = 0; i < 5; i++) {
 8002bdc:	e03fd415 	stw	zero,-176(fp)
 8002be0:	00002806 	br	8002c84 <process_filter+0x224c>
		while (*to_sw_sig != 0); // wait until hardware is doing nothing
 8002be4:	0001883a 	nop
 8002be8:	00881404 	movi	r2,8272
 8002bec:	10800003 	ldbu	r2,0(r2)
 8002bf0:	10803fcc 	andi	r2,r2,255
 8002bf4:	103ffc1e 	bne	r2,zero,8002be8 <__alt_data_end+0xfc002be8>
		*coefficient = (alt_u32)(coeffs[i] * (1 << 14));
 8002bf8:	04082004 	movi	r16,8320
 8002bfc:	e0bfd417 	ldw	r2,-176(fp)
 8002c00:	100490fa 	slli	r2,r2,3
 8002c04:	e0ffd404 	addi	r3,fp,-176
 8002c08:	1885883a 	add	r2,r3,r2
 8002c0c:	11000304 	addi	r4,r2,12
 8002c10:	20800017 	ldw	r2,0(r4)
 8002c14:	20c00117 	ldw	r3,4(r4)
 8002c18:	1009883a 	mov	r4,r2
 8002c1c:	180b883a 	mov	r5,r3
 8002c20:	000d883a 	mov	r6,zero
 8002c24:	01d03434 	movhi	r7,16592
 8002c28:	800b9f00 	call	800b9f0 <__muldf3>
 8002c2c:	1009883a 	mov	r4,r2
 8002c30:	180b883a 	mov	r5,r3
 8002c34:	2005883a 	mov	r2,r4
 8002c38:	2807883a 	mov	r3,r5
 8002c3c:	1009883a 	mov	r4,r2
 8002c40:	180b883a 	mov	r5,r3
 8002c44:	8009e440 	call	8009e44 <__fixunsdfsi>
 8002c48:	80800015 	stw	r2,0(r16)
		*to_hw_sig = 1; // tell hw to process the coefficient
 8002c4c:	00881804 	movi	r2,8288
 8002c50:	00c00044 	movi	r3,1
 8002c54:	10c00005 	stb	r3,0(r2)
		while (*to_sw_sig != 1); // wait until hw is done
 8002c58:	0001883a 	nop
 8002c5c:	00881404 	movi	r2,8272
 8002c60:	10800003 	ldbu	r2,0(r2)
 8002c64:	10803fcc 	andi	r2,r2,255
 8002c68:	10800058 	cmpnei	r2,r2,1
 8002c6c:	103ffb1e 	bne	r2,zero,8002c5c <__alt_data_end+0xfc002c5c>
		*to_hw_sig = 0; // tell hw that we know it's done
 8002c70:	00881804 	movi	r2,8288
 8002c74:	10000005 	stb	zero,0(r2)
	*G_string = (G_str[0] << 24) | (G_str[1] << 16) | (G_str[2] << 8) | G_str[3];

	sprintf(Q_str, "%4f", Q);
	*Q_string = (Q_str[0] << 24) | (Q_str[1] << 16) | (Q_str[2] << 8) | Q_str[3];

	for (i = 0; i < 5; i++) {
 8002c78:	e0bfd417 	ldw	r2,-176(fp)
 8002c7c:	10800044 	addi	r2,r2,1
 8002c80:	e0bfd415 	stw	r2,-176(fp)
 8002c84:	e0bfd417 	ldw	r2,-176(fp)
 8002c88:	10800150 	cmplti	r2,r2,5
 8002c8c:	103fd51e 	bne	r2,zero,8002be4 <__alt_data_end+0xfc002be4>
		*coefficient = (alt_u32)(coeffs[i] * (1 << 14));
		*to_hw_sig = 1; // tell hw to process the coefficient
		while (*to_sw_sig != 1); // wait until hw is done
		*to_hw_sig = 0; // tell hw that we know it's done
	}
	printf("Beginning graph calculations...");
 8002c90:	010200b4 	movhi	r4,2050
 8002c94:	213e4104 	addi	r4,r4,-1788
 8002c98:	800cfec0 	call	800cfec <printf>
	bCoeffsSq = pow(b0 + b1 + b2, 2);
 8002c9c:	d166fd17 	ldw	r5,-25612(gp)
 8002ca0:	d0a6fe04 	addi	r2,gp,-25608
 8002ca4:	11800017 	ldw	r6,0(r2)
 8002ca8:	d0a6ec17 	ldw	r2,-25680(gp)
 8002cac:	d126ed04 	addi	r4,gp,-25676
 8002cb0:	20c00017 	ldw	r3,0(r4)
 8002cb4:	2809883a 	mov	r4,r5
 8002cb8:	300b883a 	mov	r5,r6
 8002cbc:	100d883a 	mov	r6,r2
 8002cc0:	180f883a 	mov	r7,r3
 8002cc4:	800a5900 	call	800a590 <__adddf3>
 8002cc8:	100f883a 	mov	r7,r2
 8002ccc:	1811883a 	mov	r8,r3
 8002cd0:	380b883a 	mov	r5,r7
 8002cd4:	400d883a 	mov	r6,r8
 8002cd8:	d0a6e417 	ldw	r2,-25712(gp)
 8002cdc:	d126e504 	addi	r4,gp,-25708
 8002ce0:	20c00017 	ldw	r3,0(r4)
 8002ce4:	2809883a 	mov	r4,r5
 8002ce8:	300b883a 	mov	r5,r6
 8002cec:	100d883a 	mov	r6,r2
 8002cf0:	180f883a 	mov	r7,r3
 8002cf4:	800a5900 	call	800a590 <__adddf3>
 8002cf8:	1009883a 	mov	r4,r2
 8002cfc:	180b883a 	mov	r5,r3
 8002d00:	2005883a 	mov	r2,r4
 8002d04:	2807883a 	mov	r3,r5
 8002d08:	1009883a 	mov	r4,r2
 8002d0c:	180b883a 	mov	r5,r3
 8002d10:	000d883a 	mov	r6,zero
 8002d14:	01d00034 	movhi	r7,16384
 8002d18:	80059780 	call	8005978 <pow>
 8002d1c:	1009883a 	mov	r4,r2
 8002d20:	180b883a 	mov	r5,r3
 8002d24:	d126f515 	stw	r4,-25644(gp)
 8002d28:	d0a6f604 	addi	r2,gp,-25640
 8002d2c:	11400015 	stw	r5,0(r2)
	aCoeffsSq = pow(1 + -a1 + -a2, 2);
 8002d30:	d0a6ee17 	ldw	r2,-25672(gp)
 8002d34:	d126ef04 	addi	r4,gp,-25668
 8002d38:	20c00017 	ldw	r3,0(r4)
 8002d3c:	0009883a 	mov	r4,zero
 8002d40:	014ffc34 	movhi	r5,16368
 8002d44:	100d883a 	mov	r6,r2
 8002d48:	180f883a 	mov	r7,r3
 8002d4c:	800c25c0 	call	800c25c <__subdf3>
 8002d50:	100f883a 	mov	r7,r2
 8002d54:	1811883a 	mov	r8,r3
 8002d58:	380b883a 	mov	r5,r7
 8002d5c:	400d883a 	mov	r6,r8
 8002d60:	d0a6f917 	ldw	r2,-25628(gp)
 8002d64:	d126fa04 	addi	r4,gp,-25624
 8002d68:	20c00017 	ldw	r3,0(r4)
 8002d6c:	2809883a 	mov	r4,r5
 8002d70:	300b883a 	mov	r5,r6
 8002d74:	100d883a 	mov	r6,r2
 8002d78:	180f883a 	mov	r7,r3
 8002d7c:	800c25c0 	call	800c25c <__subdf3>
 8002d80:	1009883a 	mov	r4,r2
 8002d84:	180b883a 	mov	r5,r3
 8002d88:	2005883a 	mov	r2,r4
 8002d8c:	2807883a 	mov	r3,r5
 8002d90:	1009883a 	mov	r4,r2
 8002d94:	180b883a 	mov	r5,r3
 8002d98:	000d883a 	mov	r6,zero
 8002d9c:	01d00034 	movhi	r7,16384
 8002da0:	80059780 	call	8005978 <pow>
 8002da4:	1009883a 	mov	r4,r2
 8002da8:	180b883a 	mov	r5,r3
 8002dac:	d126fb15 	stw	r4,-25620(gp)
 8002db0:	d0a6fc04 	addi	r2,gp,-25616
 8002db4:	11400015 	stw	r5,0(r2)
	for (i = 0; i < 517; i++) {
 8002db8:	e03fd415 	stw	zero,-176(fp)
 8002dbc:	00005406 	br	8002f10 <process_filter+0x24d8>
		while (*to_sw_sig != 0); // wait until hardware is doing nothing
 8002dc0:	0001883a 	nop
 8002dc4:	00881404 	movi	r2,8272
 8002dc8:	10800003 	ldbu	r2,0(r2)
 8002dcc:	10803fcc 	andi	r2,r2,255
 8002dd0:	103ffc1e 	bne	r2,zero,8002dc4 <__alt_data_end+0xfc002dc4>
		addToGraph(i, b0, b1, b2, a1, a2);
 8002dd4:	d2a6fd17 	ldw	r10,-25612(gp)
 8002dd8:	d0a6fe04 	addi	r2,gp,-25608
 8002ddc:	12c00017 	ldw	r11,0(r2)
 8002de0:	d226ec17 	ldw	r8,-25680(gp)
 8002de4:	d0a6ed04 	addi	r2,gp,-25676
 8002de8:	12400017 	ldw	r9,0(r2)
 8002dec:	d1a6e417 	ldw	r6,-25712(gp)
 8002df0:	d0a6e504 	addi	r2,gp,-25708
 8002df4:	11c00017 	ldw	r7,0(r2)
 8002df8:	d126ee17 	ldw	r4,-25672(gp)
 8002dfc:	d0a6ef04 	addi	r2,gp,-25668
 8002e00:	11400017 	ldw	r5,0(r2)
 8002e04:	d0a6f917 	ldw	r2,-25628(gp)
 8002e08:	d326fa04 	addi	r12,gp,-25624
 8002e0c:	60c00017 	ldw	r3,0(r12)
 8002e10:	d9800115 	stw	r6,4(sp)
 8002e14:	d9c00215 	stw	r7,8(sp)
 8002e18:	d9000315 	stw	r4,12(sp)
 8002e1c:	d9400415 	stw	r5,16(sp)
 8002e20:	d8800515 	stw	r2,20(sp)
 8002e24:	d8c00615 	stw	r3,24(sp)
 8002e28:	da400015 	stw	r9,0(sp)
 8002e2c:	400f883a 	mov	r7,r8
 8002e30:	e13fd417 	ldw	r4,-176(fp)
 8002e34:	500b883a 	mov	r5,r10
 8002e38:	580d883a 	mov	r6,r11
 8002e3c:	8002fc00 	call	8002fc0 <addToGraph>
		int sampleSum = 191;
 8002e40:	00802fc4 	movi	r2,191
 8002e44:	e0bfd515 	stw	r2,-172(fp)
		int j;
		for (j = 0; j < 8; j++)
 8002e48:	e03fd615 	stw	zero,-168(fp)
 8002e4c:	00001306 	br	8002e9c <process_filter+0x2464>
			sampleSum += samples[j][i];
 8002e50:	040200b4 	movhi	r16,2050
 8002e54:	84121304 	addi	r16,r16,18508
 8002e58:	e0bfd617 	ldw	r2,-168(fp)
 8002e5c:	1009883a 	mov	r4,r2
 8002e60:	01408144 	movi	r5,517
 8002e64:	8009fe40 	call	8009fe4 <__mulsi3>
 8002e68:	1007883a 	mov	r3,r2
 8002e6c:	e0bfd417 	ldw	r2,-176(fp)
 8002e70:	1885883a 	add	r2,r3,r2
 8002e74:	1085883a 	add	r2,r2,r2
 8002e78:	1085883a 	add	r2,r2,r2
 8002e7c:	8085883a 	add	r2,r16,r2
 8002e80:	10800017 	ldw	r2,0(r2)
 8002e84:	e0ffd517 	ldw	r3,-172(fp)
 8002e88:	1885883a 	add	r2,r3,r2
 8002e8c:	e0bfd515 	stw	r2,-172(fp)
	for (i = 0; i < 517; i++) {
		while (*to_sw_sig != 0); // wait until hardware is doing nothing
		addToGraph(i, b0, b1, b2, a1, a2);
		int sampleSum = 191;
		int j;
		for (j = 0; j < 8; j++)
 8002e90:	e0bfd617 	ldw	r2,-168(fp)
 8002e94:	10800044 	addi	r2,r2,1
 8002e98:	e0bfd615 	stw	r2,-168(fp)
 8002e9c:	e0bfd617 	ldw	r2,-168(fp)
 8002ea0:	10800210 	cmplti	r2,r2,8
 8002ea4:	103fea1e 	bne	r2,zero,8002e50 <__alt_data_end+0xfc002e50>
			sampleSum += samples[j][i];
		if (sampleSum < 0) {
 8002ea8:	e0bfd517 	ldw	r2,-172(fp)
 8002eac:	1000020e 	bge	r2,zero,8002eb8 <process_filter+0x2480>
			sampleSum = 0;
 8002eb0:	e03fd515 	stw	zero,-172(fp)
 8002eb4:	00000506 	br	8002ecc <process_filter+0x2494>
		} else if (sampleSum > 255) {
 8002eb8:	e0bfd517 	ldw	r2,-172(fp)
 8002ebc:	10804010 	cmplti	r2,r2,256
 8002ec0:	1000021e 	bne	r2,zero,8002ecc <process_filter+0x2494>
			sampleSum = 255;
 8002ec4:	00803fc4 	movi	r2,255
 8002ec8:	e0bfd515 	stw	r2,-172(fp)
		}
		*coefficient = (alt_u32)(sampleSum);
 8002ecc:	00882004 	movi	r2,8320
 8002ed0:	e0ffd517 	ldw	r3,-172(fp)
 8002ed4:	10c00015 	stw	r3,0(r2)
		*to_hw_sig = 1; // tell hw to process the coefficient
 8002ed8:	00881804 	movi	r2,8288
 8002edc:	00c00044 	movi	r3,1
 8002ee0:	10c00005 	stb	r3,0(r2)
		while (*to_sw_sig != 1); // wait until hw is done
 8002ee4:	0001883a 	nop
 8002ee8:	00881404 	movi	r2,8272
 8002eec:	10800003 	ldbu	r2,0(r2)
 8002ef0:	10803fcc 	andi	r2,r2,255
 8002ef4:	10800058 	cmpnei	r2,r2,1
 8002ef8:	103ffb1e 	bne	r2,zero,8002ee8 <__alt_data_end+0xfc002ee8>
		*to_hw_sig = 0; // tell hw that we know it's done
 8002efc:	00881804 	movi	r2,8288
 8002f00:	10000005 	stb	zero,0(r2)
		*to_hw_sig = 0; // tell hw that we know it's done
	}
	printf("Beginning graph calculations...");
	bCoeffsSq = pow(b0 + b1 + b2, 2);
	aCoeffsSq = pow(1 + -a1 + -a2, 2);
	for (i = 0; i < 517; i++) {
 8002f04:	e0bfd417 	ldw	r2,-176(fp)
 8002f08:	10800044 	addi	r2,r2,1
 8002f0c:	e0bfd415 	stw	r2,-176(fp)
 8002f10:	e0bfd417 	ldw	r2,-176(fp)
 8002f14:	10808150 	cmplti	r2,r2,517
 8002f18:	103fa91e 	bne	r2,zero,8002dc0 <__alt_data_end+0xfc002dc0>
		*coefficient = (alt_u32)(sampleSum);
		*to_hw_sig = 1; // tell hw to process the coefficient
		while (*to_sw_sig != 1); // wait until hw is done
		*to_hw_sig = 0; // tell hw that we know it's done
	}
	while (*to_sw_sig != 0);
 8002f1c:	0001883a 	nop
 8002f20:	00881404 	movi	r2,8272
 8002f24:	10800003 	ldbu	r2,0(r2)
 8002f28:	10803fcc 	andi	r2,r2,255
 8002f2c:	103ffc1e 	bne	r2,zero,8002f20 <__alt_data_end+0xfc002f20>
	*to_hw_sig = 1;
 8002f30:	00881804 	movi	r2,8288
 8002f34:	00c00044 	movi	r3,1
 8002f38:	10c00005 	stb	r3,0(r2)
	while (*to_sw_sig != 1);
 8002f3c:	0001883a 	nop
 8002f40:	00881404 	movi	r2,8272
 8002f44:	10800003 	ldbu	r2,0(r2)
 8002f48:	10803fcc 	andi	r2,r2,255
 8002f4c:	10800058 	cmpnei	r2,r2,1
 8002f50:	103ffb1e 	bne	r2,zero,8002f40 <__alt_data_end+0xfc002f40>
	*to_hw_sig = 0;
 8002f54:	00881804 	movi	r2,8288
 8002f58:	10000005 	stb	zero,0(r2)
	while (*to_sw_sig != 0); // wait until it's back in the reset state
 8002f5c:	0001883a 	nop
 8002f60:	00881404 	movi	r2,8272
 8002f64:	10800003 	ldbu	r2,0(r2)
 8002f68:	10803fcc 	andi	r2,r2,255
 8002f6c:	103ffc1e 	bne	r2,zero,8002f60 <__alt_data_end+0xfc002f60>

	state = 0;
 8002f70:	d026e315 	stw	zero,-25716(gp)
	printf("\nPress E to edit the filters\n");
 8002f74:	010200b4 	movhi	r4,2050
 8002f78:	213e4904 	addi	r4,r4,-1756
 8002f7c:	800d0e00 	call	800d0e0 <puts>
	*to_hw_sig = 6;
 8002f80:	00881804 	movi	r2,8288
 8002f84:	00c00184 	movi	r3,6
 8002f88:	10c00005 	stb	r3,0(r2)
}
 8002f8c:	e6fff804 	addi	sp,fp,-32
 8002f90:	dfc00917 	ldw	ra,36(sp)
 8002f94:	df000817 	ldw	fp,32(sp)
 8002f98:	ddc00717 	ldw	r23,28(sp)
 8002f9c:	dd800617 	ldw	r22,24(sp)
 8002fa0:	dd400517 	ldw	r21,20(sp)
 8002fa4:	dd000417 	ldw	r20,16(sp)
 8002fa8:	dcc00317 	ldw	r19,12(sp)
 8002fac:	dc800217 	ldw	r18,8(sp)
 8002fb0:	dc400117 	ldw	r17,4(sp)
 8002fb4:	dc000017 	ldw	r16,0(sp)
 8002fb8:	dec00a04 	addi	sp,sp,40
 8002fbc:	f800283a 	ret

08002fc0 <addToGraph>:

void addToGraph(int i, double b0, double b1, double b2, double a1, double a2) {
 8002fc0:	deffe604 	addi	sp,sp,-104
 8002fc4:	dfc01815 	stw	ra,96(sp)
 8002fc8:	df001715 	stw	fp,92(sp)
 8002fcc:	ddc01615 	stw	r23,88(sp)
 8002fd0:	dd801515 	stw	r22,84(sp)
 8002fd4:	dd401415 	stw	r21,80(sp)
 8002fd8:	dd001315 	stw	r20,76(sp)
 8002fdc:	dcc01215 	stw	r19,72(sp)
 8002fe0:	dc801115 	stw	r18,68(sp)
 8002fe4:	dc401015 	stw	r17,64(sp)
 8002fe8:	dc000f15 	stw	r16,60(sp)
 8002fec:	df001704 	addi	fp,sp,92
 8002ff0:	e13ff315 	stw	r4,-52(fp)
 8002ff4:	e17ff415 	stw	r5,-48(fp)
 8002ff8:	e1bff515 	stw	r6,-44(fp)
 8002ffc:	e1c00215 	stw	r7,8(fp)
	double w = 2 * M_PI * frequencies[i] / Fs;
 8003000:	008200b4 	movhi	r2,2050
 8003004:	10900404 	addi	r2,r2,16400
 8003008:	e0fff317 	ldw	r3,-52(fp)
 800300c:	18c7883a 	add	r3,r3,r3
 8003010:	18c7883a 	add	r3,r3,r3
 8003014:	10c5883a 	add	r2,r2,r3
 8003018:	10c00017 	ldw	r3,0(r2)
 800301c:	1809883a 	mov	r4,r3
 8003020:	800cc840 	call	800cc84 <__extendsfdf2>
 8003024:	100b883a 	mov	r5,r2
 8003028:	180d883a 	mov	r6,r3
 800302c:	2809883a 	mov	r4,r5
 8003030:	300b883a 	mov	r5,r6
 8003034:	01951134 	movhi	r6,21572
 8003038:	318b4604 	addi	r6,r6,11544
 800303c:	01d00674 	movhi	r7,16409
 8003040:	39c87ec4 	addi	r7,r7,8699
 8003044:	800b9f00 	call	800b9f0 <__muldf3>
 8003048:	100f883a 	mov	r7,r2
 800304c:	1811883a 	mov	r8,r3
 8003050:	380b883a 	mov	r5,r7
 8003054:	400d883a 	mov	r6,r8
 8003058:	d0a00117 	ldw	r2,-32764(gp)
 800305c:	d1200204 	addi	r4,gp,-32760
 8003060:	20c00017 	ldw	r3,0(r4)
 8003064:	2809883a 	mov	r4,r5
 8003068:	300b883a 	mov	r5,r6
 800306c:	100d883a 	mov	r6,r2
 8003070:	180f883a 	mov	r7,r3
 8003074:	800ae2c0 	call	800ae2c <__divdf3>
 8003078:	1009883a 	mov	r4,r2
 800307c:	180b883a 	mov	r5,r3
 8003080:	e13fe915 	stw	r4,-92(fp)
 8003084:	e17fea15 	stw	r5,-88(fp)
	double phi = 4 * pow(sin(w / 2), 2);
 8003088:	e13fe917 	ldw	r4,-92(fp)
 800308c:	e17fea17 	ldw	r5,-88(fp)
 8003090:	000d883a 	mov	r6,zero
 8003094:	01d00034 	movhi	r7,16384
 8003098:	800ae2c0 	call	800ae2c <__divdf3>
 800309c:	1009883a 	mov	r4,r2
 80030a0:	180b883a 	mov	r5,r3
 80030a4:	2005883a 	mov	r2,r4
 80030a8:	2807883a 	mov	r3,r5
 80030ac:	1009883a 	mov	r4,r2
 80030b0:	180b883a 	mov	r5,r3
 80030b4:	80056ec0 	call	80056ec <sin>
 80030b8:	100b883a 	mov	r5,r2
 80030bc:	180d883a 	mov	r6,r3
 80030c0:	2809883a 	mov	r4,r5
 80030c4:	300b883a 	mov	r5,r6
 80030c8:	000d883a 	mov	r6,zero
 80030cc:	01d00034 	movhi	r7,16384
 80030d0:	80059780 	call	8005978 <pow>
 80030d4:	100b883a 	mov	r5,r2
 80030d8:	180d883a 	mov	r6,r3
 80030dc:	2809883a 	mov	r4,r5
 80030e0:	300b883a 	mov	r5,r6
 80030e4:	000d883a 	mov	r6,zero
 80030e8:	01d00434 	movhi	r7,16400
 80030ec:	800b9f00 	call	800b9f0 <__muldf3>
 80030f0:	1009883a 	mov	r4,r2
 80030f4:	180b883a 	mov	r5,r3
 80030f8:	e13feb15 	stw	r4,-84(fp)
 80030fc:	e17fec15 	stw	r5,-80(fp)
	double bCalc = (b0 * b2 * phi) - ((b1 * (b0 + b2)) + (4 * b0 * b2));
 8003100:	e13ff417 	ldw	r4,-48(fp)
 8003104:	e17ff517 	ldw	r5,-44(fp)
 8003108:	e1800417 	ldw	r6,16(fp)
 800310c:	e1c00517 	ldw	r7,20(fp)
 8003110:	800b9f00 	call	800b9f0 <__muldf3>
 8003114:	1009883a 	mov	r4,r2
 8003118:	180b883a 	mov	r5,r3
 800311c:	2005883a 	mov	r2,r4
 8003120:	2807883a 	mov	r3,r5
 8003124:	1009883a 	mov	r4,r2
 8003128:	180b883a 	mov	r5,r3
 800312c:	e1bfeb17 	ldw	r6,-84(fp)
 8003130:	e1ffec17 	ldw	r7,-80(fp)
 8003134:	800b9f00 	call	800b9f0 <__muldf3>
 8003138:	1009883a 	mov	r4,r2
 800313c:	180b883a 	mov	r5,r3
 8003140:	202d883a 	mov	r22,r4
 8003144:	282f883a 	mov	r23,r5
 8003148:	e13ff417 	ldw	r4,-48(fp)
 800314c:	e17ff517 	ldw	r5,-44(fp)
 8003150:	e1800417 	ldw	r6,16(fp)
 8003154:	e1c00517 	ldw	r7,20(fp)
 8003158:	800a5900 	call	800a590 <__adddf3>
 800315c:	1009883a 	mov	r4,r2
 8003160:	180b883a 	mov	r5,r3
 8003164:	2005883a 	mov	r2,r4
 8003168:	2807883a 	mov	r3,r5
 800316c:	1009883a 	mov	r4,r2
 8003170:	180b883a 	mov	r5,r3
 8003174:	e1800217 	ldw	r6,8(fp)
 8003178:	e1c00317 	ldw	r7,12(fp)
 800317c:	800b9f00 	call	800b9f0 <__muldf3>
 8003180:	1009883a 	mov	r4,r2
 8003184:	180b883a 	mov	r5,r3
 8003188:	e13ff615 	stw	r4,-40(fp)
 800318c:	e17ff715 	stw	r5,-36(fp)
 8003190:	e13ff417 	ldw	r4,-48(fp)
 8003194:	e17ff517 	ldw	r5,-44(fp)
 8003198:	000d883a 	mov	r6,zero
 800319c:	01d00434 	movhi	r7,16400
 80031a0:	800b9f00 	call	800b9f0 <__muldf3>
 80031a4:	1009883a 	mov	r4,r2
 80031a8:	180b883a 	mov	r5,r3
 80031ac:	2005883a 	mov	r2,r4
 80031b0:	2807883a 	mov	r3,r5
 80031b4:	1009883a 	mov	r4,r2
 80031b8:	180b883a 	mov	r5,r3
 80031bc:	e1800417 	ldw	r6,16(fp)
 80031c0:	e1c00517 	ldw	r7,20(fp)
 80031c4:	800b9f00 	call	800b9f0 <__muldf3>
 80031c8:	1009883a 	mov	r4,r2
 80031cc:	180b883a 	mov	r5,r3
 80031d0:	2005883a 	mov	r2,r4
 80031d4:	2807883a 	mov	r3,r5
 80031d8:	e13ff617 	ldw	r4,-40(fp)
 80031dc:	e17ff717 	ldw	r5,-36(fp)
 80031e0:	100d883a 	mov	r6,r2
 80031e4:	180f883a 	mov	r7,r3
 80031e8:	800a5900 	call	800a590 <__adddf3>
 80031ec:	1009883a 	mov	r4,r2
 80031f0:	180b883a 	mov	r5,r3
 80031f4:	2005883a 	mov	r2,r4
 80031f8:	2807883a 	mov	r3,r5
 80031fc:	b009883a 	mov	r4,r22
 8003200:	b80b883a 	mov	r5,r23
 8003204:	100d883a 	mov	r6,r2
 8003208:	180f883a 	mov	r7,r3
 800320c:	800c25c0 	call	800c25c <__subdf3>
 8003210:	1009883a 	mov	r4,r2
 8003214:	180b883a 	mov	r5,r3
 8003218:	e13fed15 	stw	r4,-76(fp)
 800321c:	e17fee15 	stw	r5,-72(fp)
	double aCalc = (1 * -a2 * phi) - ((-a1 * (1 + -a2)) + (4 * 1 * -a2));
 8003220:	e5000817 	ldw	r20,32(fp)
 8003224:	e0800917 	ldw	r2,36(fp)
 8003228:	1560003c 	xorhi	r21,r2,32768
 800322c:	a009883a 	mov	r4,r20
 8003230:	a80b883a 	mov	r5,r21
 8003234:	e1bfeb17 	ldw	r6,-84(fp)
 8003238:	e1ffec17 	ldw	r7,-80(fp)
 800323c:	800b9f00 	call	800b9f0 <__muldf3>
 8003240:	1009883a 	mov	r4,r2
 8003244:	180b883a 	mov	r5,r3
 8003248:	2029883a 	mov	r20,r4
 800324c:	282b883a 	mov	r21,r5
 8003250:	e4800617 	ldw	r18,24(fp)
 8003254:	e0800717 	ldw	r2,28(fp)
 8003258:	14e0003c 	xorhi	r19,r2,32768
 800325c:	0009883a 	mov	r4,zero
 8003260:	014ffc34 	movhi	r5,16368
 8003264:	e1800817 	ldw	r6,32(fp)
 8003268:	e1c00917 	ldw	r7,36(fp)
 800326c:	800c25c0 	call	800c25c <__subdf3>
 8003270:	1009883a 	mov	r4,r2
 8003274:	180b883a 	mov	r5,r3
 8003278:	2005883a 	mov	r2,r4
 800327c:	2807883a 	mov	r3,r5
 8003280:	9009883a 	mov	r4,r18
 8003284:	980b883a 	mov	r5,r19
 8003288:	100d883a 	mov	r6,r2
 800328c:	180f883a 	mov	r7,r3
 8003290:	800b9f00 	call	800b9f0 <__muldf3>
 8003294:	1009883a 	mov	r4,r2
 8003298:	180b883a 	mov	r5,r3
 800329c:	2025883a 	mov	r18,r4
 80032a0:	2827883a 	mov	r19,r5
 80032a4:	e4000817 	ldw	r16,32(fp)
 80032a8:	e0800917 	ldw	r2,36(fp)
 80032ac:	1460003c 	xorhi	r17,r2,32768
 80032b0:	8009883a 	mov	r4,r16
 80032b4:	880b883a 	mov	r5,r17
 80032b8:	000d883a 	mov	r6,zero
 80032bc:	01d00434 	movhi	r7,16400
 80032c0:	800b9f00 	call	800b9f0 <__muldf3>
 80032c4:	1009883a 	mov	r4,r2
 80032c8:	180b883a 	mov	r5,r3
 80032cc:	2005883a 	mov	r2,r4
 80032d0:	2807883a 	mov	r3,r5
 80032d4:	9009883a 	mov	r4,r18
 80032d8:	980b883a 	mov	r5,r19
 80032dc:	100d883a 	mov	r6,r2
 80032e0:	180f883a 	mov	r7,r3
 80032e4:	800a5900 	call	800a590 <__adddf3>
 80032e8:	1009883a 	mov	r4,r2
 80032ec:	180b883a 	mov	r5,r3
 80032f0:	2005883a 	mov	r2,r4
 80032f4:	2807883a 	mov	r3,r5
 80032f8:	a009883a 	mov	r4,r20
 80032fc:	a80b883a 	mov	r5,r21
 8003300:	100d883a 	mov	r6,r2
 8003304:	180f883a 	mov	r7,r3
 8003308:	800c25c0 	call	800c25c <__subdf3>
 800330c:	1009883a 	mov	r4,r2
 8003310:	180b883a 	mov	r5,r3
 8003314:	e13fef15 	stw	r4,-68(fp)
 8003318:	e17ff015 	stw	r5,-64(fp)
	// printf("%f: bCalc - %f, aCalc - %f\n", F, bCalc, aCalc);
	double db = (10 * log10(bCoeffsSq + (bCalc * phi))) -
 800331c:	e13fed17 	ldw	r4,-76(fp)
 8003320:	e17fee17 	ldw	r5,-72(fp)
 8003324:	e1bfeb17 	ldw	r6,-84(fp)
 8003328:	e1ffec17 	ldw	r7,-80(fp)
 800332c:	800b9f00 	call	800b9f0 <__muldf3>
 8003330:	100f883a 	mov	r7,r2
 8003334:	1811883a 	mov	r8,r3
 8003338:	380b883a 	mov	r5,r7
 800333c:	400d883a 	mov	r6,r8
 8003340:	d0a6f517 	ldw	r2,-25644(gp)
 8003344:	d126f604 	addi	r4,gp,-25640
 8003348:	20c00017 	ldw	r3,0(r4)
 800334c:	2809883a 	mov	r4,r5
 8003350:	300b883a 	mov	r5,r6
 8003354:	100d883a 	mov	r6,r2
 8003358:	180f883a 	mov	r7,r3
 800335c:	800a5900 	call	800a590 <__adddf3>
 8003360:	1009883a 	mov	r4,r2
 8003364:	180b883a 	mov	r5,r3
 8003368:	2005883a 	mov	r2,r4
 800336c:	2807883a 	mov	r3,r5
 8003370:	1009883a 	mov	r4,r2
 8003374:	180b883a 	mov	r5,r3
 8003378:	80057dc0 	call	80057dc <log10>
 800337c:	100b883a 	mov	r5,r2
 8003380:	180d883a 	mov	r6,r3
 8003384:	2809883a 	mov	r4,r5
 8003388:	300b883a 	mov	r5,r6
 800338c:	000d883a 	mov	r6,zero
 8003390:	01d00934 	movhi	r7,16420
 8003394:	800b9f00 	call	800b9f0 <__muldf3>
 8003398:	1009883a 	mov	r4,r2
 800339c:	180b883a 	mov	r5,r3
 80033a0:	2021883a 	mov	r16,r4
 80033a4:	2823883a 	mov	r17,r5
			   (10 * log10(aCoeffsSq + (aCalc * phi)));
 80033a8:	e13fef17 	ldw	r4,-68(fp)
 80033ac:	e17ff017 	ldw	r5,-64(fp)
 80033b0:	e1bfeb17 	ldw	r6,-84(fp)
 80033b4:	e1ffec17 	ldw	r7,-80(fp)
 80033b8:	800b9f00 	call	800b9f0 <__muldf3>
 80033bc:	100f883a 	mov	r7,r2
 80033c0:	1811883a 	mov	r8,r3
 80033c4:	380b883a 	mov	r5,r7
 80033c8:	400d883a 	mov	r6,r8
 80033cc:	d0a6fb17 	ldw	r2,-25620(gp)
 80033d0:	d126fc04 	addi	r4,gp,-25616
 80033d4:	20c00017 	ldw	r3,0(r4)
 80033d8:	2809883a 	mov	r4,r5
 80033dc:	300b883a 	mov	r5,r6
 80033e0:	100d883a 	mov	r6,r2
 80033e4:	180f883a 	mov	r7,r3
 80033e8:	800a5900 	call	800a590 <__adddf3>
 80033ec:	1009883a 	mov	r4,r2
 80033f0:	180b883a 	mov	r5,r3
 80033f4:	2005883a 	mov	r2,r4
 80033f8:	2807883a 	mov	r3,r5
 80033fc:	1009883a 	mov	r4,r2
 8003400:	180b883a 	mov	r5,r3
 8003404:	80057dc0 	call	80057dc <log10>
 8003408:	100b883a 	mov	r5,r2
 800340c:	180d883a 	mov	r6,r3
 8003410:	2809883a 	mov	r4,r5
 8003414:	300b883a 	mov	r5,r6
 8003418:	000d883a 	mov	r6,zero
 800341c:	01d00934 	movhi	r7,16420
 8003420:	800b9f00 	call	800b9f0 <__muldf3>
 8003424:	1009883a 	mov	r4,r2
 8003428:	180b883a 	mov	r5,r3
 800342c:	2005883a 	mov	r2,r4
 8003430:	2807883a 	mov	r3,r5
	double w = 2 * M_PI * frequencies[i] / Fs;
	double phi = 4 * pow(sin(w / 2), 2);
	double bCalc = (b0 * b2 * phi) - ((b1 * (b0 + b2)) + (4 * b0 * b2));
	double aCalc = (1 * -a2 * phi) - ((-a1 * (1 + -a2)) + (4 * 1 * -a2));
	// printf("%f: bCalc - %f, aCalc - %f\n", F, bCalc, aCalc);
	double db = (10 * log10(bCoeffsSq + (bCalc * phi))) -
 8003434:	8009883a 	mov	r4,r16
 8003438:	880b883a 	mov	r5,r17
 800343c:	100d883a 	mov	r6,r2
 8003440:	180f883a 	mov	r7,r3
 8003444:	800c25c0 	call	800c25c <__subdf3>
 8003448:	1009883a 	mov	r4,r2
 800344c:	180b883a 	mov	r5,r3
 8003450:	e13ff115 	stw	r4,-60(fp)
 8003454:	e17ff215 	stw	r5,-56(fp)
			   (10 * log10(aCoeffsSq + (aCalc * phi)));
	// each integer is 5/32 of a db.  Range is -30db to +10db.  0db is 191
	samples[biquad - 1][i] = round(db * toSample);
 8003458:	d0a6f217 	ldw	r2,-25656(gp)
 800345c:	14bfffc4 	addi	r18,r2,-1
 8003460:	00903374 	movhi	r2,16589
 8003464:	10b33344 	addi	r2,r2,-13107
 8003468:	1009883a 	mov	r4,r2
 800346c:	800cc840 	call	800cc84 <__extendsfdf2>
 8003470:	100b883a 	mov	r5,r2
 8003474:	180d883a 	mov	r6,r3
 8003478:	2809883a 	mov	r4,r5
 800347c:	300b883a 	mov	r5,r6
 8003480:	e1bff117 	ldw	r6,-60(fp)
 8003484:	e1fff217 	ldw	r7,-56(fp)
 8003488:	800b9f00 	call	800b9f0 <__muldf3>
 800348c:	1009883a 	mov	r4,r2
 8003490:	180b883a 	mov	r5,r3
 8003494:	2005883a 	mov	r2,r4
 8003498:	2807883a 	mov	r3,r5
 800349c:	1009883a 	mov	r4,r2
 80034a0:	180b883a 	mov	r5,r3
 80034a4:	80055e80 	call	80055e8 <round>
 80034a8:	100b883a 	mov	r5,r2
 80034ac:	180d883a 	mov	r6,r3
 80034b0:	2809883a 	mov	r4,r5
 80034b4:	300b883a 	mov	r5,r6
 80034b8:	800cb2c0 	call	800cb2c <__fixdfsi>
 80034bc:	1023883a 	mov	r17,r2
 80034c0:	040200b4 	movhi	r16,2050
 80034c4:	84121304 	addi	r16,r16,18508
 80034c8:	9009883a 	mov	r4,r18
 80034cc:	01408144 	movi	r5,517
 80034d0:	8009fe40 	call	8009fe4 <__mulsi3>
 80034d4:	1007883a 	mov	r3,r2
 80034d8:	e0bff317 	ldw	r2,-52(fp)
 80034dc:	1885883a 	add	r2,r3,r2
 80034e0:	1085883a 	add	r2,r2,r2
 80034e4:	1085883a 	add	r2,r2,r2
 80034e8:	8085883a 	add	r2,r16,r2
 80034ec:	14400015 	stw	r17,0(r2)
}
 80034f0:	e6fff804 	addi	sp,fp,-32
 80034f4:	dfc00917 	ldw	ra,36(sp)
 80034f8:	df000817 	ldw	fp,32(sp)
 80034fc:	ddc00717 	ldw	r23,28(sp)
 8003500:	dd800617 	ldw	r22,24(sp)
 8003504:	dd400517 	ldw	r21,20(sp)
 8003508:	dd000417 	ldw	r20,16(sp)
 800350c:	dcc00317 	ldw	r19,12(sp)
 8003510:	dc800217 	ldw	r18,8(sp)
 8003514:	dc400117 	ldw	r17,4(sp)
 8003518:	dc000017 	ldw	r16,0(sp)
 800351c:	dec00b04 	addi	sp,sp,44
 8003520:	f800283a 	ret

08003524 <IO_init>:
#define otg_hpi_r			(volatile char*)	OTG_HPI_R_BASE
#define otg_hpi_cs			(volatile char*)	OTG_HPI_CS_BASE //FOR SOME REASON CS BASE BEHAVES WEIRDLY MIGHT HAVE TO SET MANUALLY
#define otg_hpi_w			(volatile char*)	OTG_HPI_W_BASE

void IO_init(void)
{
 8003524:	deffff04 	addi	sp,sp,-4
 8003528:	df000015 	stw	fp,0(sp)
 800352c:	d839883a 	mov	fp,sp
	*otg_hpi_r = 1;
 8003530:	00882804 	movi	r2,8352
 8003534:	00c00044 	movi	r3,1
 8003538:	10c00005 	stb	r3,0(r2)
	*otg_hpi_w = 1;
 800353c:	00882404 	movi	r2,8336
 8003540:	00c00044 	movi	r3,1
 8003544:	10c00005 	stb	r3,0(r2)
	*otg_hpi_address = 0;
 8003548:	00883004 	movi	r2,8384
 800354c:	10000015 	stw	zero,0(r2)
	*otg_hpi_data = 0;
 8003550:	00882c04 	movi	r2,8368
 8003554:	10000015 	stw	zero,0(r2)
}
 8003558:	e037883a 	mov	sp,fp
 800355c:	df000017 	ldw	fp,0(sp)
 8003560:	dec00104 	addi	sp,sp,4
 8003564:	f800283a 	ret

08003568 <IO_write>:

void IO_write(alt_u8 Address, alt_u16 Data) {
 8003568:	defffd04 	addi	sp,sp,-12
 800356c:	df000215 	stw	fp,8(sp)
 8003570:	df000204 	addi	fp,sp,8
 8003574:	2007883a 	mov	r3,r4
 8003578:	2805883a 	mov	r2,r5
 800357c:	e0fffe05 	stb	r3,-8(fp)
 8003580:	e0bfff0d 	sth	r2,-4(fp)
	*otg_hpi_data = Data;
 8003584:	00882c04 	movi	r2,8368
 8003588:	e0ffff0b 	ldhu	r3,-4(fp)
 800358c:	10c00015 	stw	r3,0(r2)
	*otg_hpi_address = Address;
 8003590:	00883004 	movi	r2,8384
 8003594:	e0fffe03 	ldbu	r3,-8(fp)
 8003598:	10c00015 	stw	r3,0(r2)
	*otg_hpi_w = 0;
 800359c:	00882404 	movi	r2,8336
 80035a0:	10000005 	stb	zero,0(r2)
	*otg_hpi_w = 1;
 80035a4:	00882404 	movi	r2,8336
 80035a8:	00c00044 	movi	r3,1
 80035ac:	10c00005 	stb	r3,0(r2)
}
 80035b0:	e037883a 	mov	sp,fp
 80035b4:	df000017 	ldw	fp,0(sp)
 80035b8:	dec00104 	addi	sp,sp,4
 80035bc:	f800283a 	ret

080035c0 <IO_read>:

alt_u16 IO_read(alt_u8 Address)
{
 80035c0:	defffd04 	addi	sp,sp,-12
 80035c4:	df000215 	stw	fp,8(sp)
 80035c8:	df000204 	addi	fp,sp,8
 80035cc:	2005883a 	mov	r2,r4
 80035d0:	e0bfff05 	stb	r2,-4(fp)
	*otg_hpi_address = Address;
 80035d4:	00883004 	movi	r2,8384
 80035d8:	e0ffff03 	ldbu	r3,-4(fp)
 80035dc:	10c00015 	stw	r3,0(r2)
	*otg_hpi_r = 0;
 80035e0:	00882804 	movi	r2,8352
 80035e4:	10000005 	stb	zero,0(r2)
	alt_u16 temp;
	temp = *otg_hpi_data;
 80035e8:	00882c04 	movi	r2,8368
 80035ec:	10800017 	ldw	r2,0(r2)
 80035f0:	e0bffe0d 	sth	r2,-8(fp)
	*otg_hpi_r = 1;
 80035f4:	00882804 	movi	r2,8352
 80035f8:	00c00044 	movi	r3,1
 80035fc:	10c00005 	stb	r3,0(r2)
//	printf("%x\n",temp);
	return temp;
 8003600:	e0bffe0b 	ldhu	r2,-8(fp)
}
 8003604:	e037883a 	mov	sp,fp
 8003608:	df000017 	ldw	fp,0(sp)
 800360c:	dec00104 	addi	sp,sp,4
 8003610:	f800283a 	ret

08003614 <main>:
//
//                                Main function
//
//----------------------------------------------------------------------------------------//
int main(void)
{
 8003614:	defff904 	addi	sp,sp,-28
 8003618:	dfc00615 	stw	ra,24(sp)
 800361c:	df000515 	stw	fp,20(sp)
 8003620:	df000504 	addi	fp,sp,20
	IO_init();
 8003624:	80035240 	call	8003524 <IO_init>
	generate_frequencies();
 8003628:	80005740 	call	8000574 <generate_frequencies>

	alt_u16 intStat;
	alt_u16 usb_ctl_val;
	static alt_u16 ctl_reg = 0;
	static alt_u16 no_device = 0;
	alt_u16 fs_device = 0;
 800362c:	e03ffc8d 	sth	zero,-14(fp)
	int keycode = 0;
 8003630:	e03ffd15 	stw	zero,-12(fp)
	char old_key = 0;
 8003634:	e03ffb85 	stb	zero,-18(fp)
	char new_key = 0;
 8003638:	e03ffbc5 	stb	zero,-17(fp)
	alt_u8 toggle = 0;
 800363c:	e03ffc05 	stb	zero,-16(fp)
	alt_u8 data_size;
	alt_u8 hot_plug_count;
	alt_u16 code;

	printf("USB keyboard setup...\n\n");
 8003640:	010200b4 	movhi	r4,2050
 8003644:	213e5104 	addi	r4,r4,-1724
 8003648:	800d0e00 	call	800d0e0 <puts>

	//----------------------------------------SIE1 initial---------------------------------------------------//
	USB_HOT_PLUG:
	UsbSoftReset();
 800364c:	80044500 	call	8004450 <UsbSoftReset>

	// STEP 1a:
	UsbWrite (HPI_SIE1_MSG_ADR, 0);
 8003650:	01005104 	movi	r4,324
 8003654:	000b883a 	mov	r5,zero
 8003658:	80043b00 	call	80043b0 <UsbWrite>
	UsbWrite (HOST1_STAT_REG, 0xFFFF);
 800365c:	01302414 	movui	r4,49296
 8003660:	017fffd4 	movui	r5,65535
 8003664:	80043b00 	call	80043b0 <UsbWrite>

	/* Set HUSB_pEOT time */
	UsbWrite(HUSB_pEOT, 600); // adjust the according to your USB device speed
 8003668:	01006d04 	movi	r4,436
 800366c:	01409604 	movi	r5,600
 8003670:	80043b00 	call	80043b0 <UsbWrite>

	usb_ctl_val = SOFEOP1_TO_CPU_EN | RESUME1_TO_HPI_EN;// | SOFEOP1_TO_HPI_EN;
 8003674:	00811004 	movi	r2,1088
 8003678:	e0bffb0d 	sth	r2,-20(fp)
	UsbWrite(HPI_IRQ_ROUTING_REG, usb_ctl_val);
 800367c:	e0bffb0b 	ldhu	r2,-20(fp)
 8003680:	01005084 	movi	r4,322
 8003684:	100b883a 	mov	r5,r2
 8003688:	80043b00 	call	80043b0 <UsbWrite>

	intStat = A_CHG_IRQ_EN | SOF_EOP_IRQ_EN ;
 800368c:	00808404 	movi	r2,528
 8003690:	e0bffe0d 	sth	r2,-8(fp)
	UsbWrite(HOST1_IRQ_EN_REG, intStat);
 8003694:	e0bffe0b 	ldhu	r2,-8(fp)
 8003698:	01302314 	movui	r4,49292
 800369c:	100b883a 	mov	r5,r2
 80036a0:	80043b00 	call	80043b0 <UsbWrite>
	// STEP 1a end

	// STEP 1b begin
	UsbWrite(COMM_R0,0x0000);//reset time
 80036a4:	01007104 	movi	r4,452
 80036a8:	000b883a 	mov	r5,zero
 80036ac:	80043b00 	call	80043b0 <UsbWrite>
	UsbWrite(COMM_R1,0x0000);  //port number
 80036b0:	01007184 	movi	r4,454
 80036b4:	000b883a 	mov	r5,zero
 80036b8:	80043b00 	call	80043b0 <UsbWrite>
	UsbWrite(COMM_R2,0x0000);  //r1
 80036bc:	01007204 	movi	r4,456
 80036c0:	000b883a 	mov	r5,zero
 80036c4:	80043b00 	call	80043b0 <UsbWrite>
	UsbWrite(COMM_R3,0x0000);  //r1
 80036c8:	01007284 	movi	r4,458
 80036cc:	000b883a 	mov	r5,zero
 80036d0:	80043b00 	call	80043b0 <UsbWrite>
	UsbWrite(COMM_R4,0x0000);  //r1
 80036d4:	01007304 	movi	r4,460
 80036d8:	000b883a 	mov	r5,zero
 80036dc:	80043b00 	call	80043b0 <UsbWrite>
	UsbWrite(COMM_R5,0x0000);  //r1
 80036e0:	01007384 	movi	r4,462
 80036e4:	000b883a 	mov	r5,zero
 80036e8:	80043b00 	call	80043b0 <UsbWrite>
	UsbWrite(COMM_R6,0x0000);  //r1
 80036ec:	01007404 	movi	r4,464
 80036f0:	000b883a 	mov	r5,zero
 80036f4:	80043b00 	call	80043b0 <UsbWrite>
	UsbWrite(COMM_R7,0x0000);  //r1
 80036f8:	01007484 	movi	r4,466
 80036fc:	000b883a 	mov	r5,zero
 8003700:	80043b00 	call	80043b0 <UsbWrite>
	UsbWrite(COMM_R8,0x0000);  //r1
 8003704:	01007504 	movi	r4,468
 8003708:	000b883a 	mov	r5,zero
 800370c:	80043b00 	call	80043b0 <UsbWrite>
	UsbWrite(COMM_R9,0x0000);  //r1
 8003710:	01007584 	movi	r4,470
 8003714:	000b883a 	mov	r5,zero
 8003718:	80043b00 	call	80043b0 <UsbWrite>
	UsbWrite(COMM_R10,0x0000);  //r1
 800371c:	01007604 	movi	r4,472
 8003720:	000b883a 	mov	r5,zero
 8003724:	80043b00 	call	80043b0 <UsbWrite>
	UsbWrite(COMM_R11,0x0000);  //r1
 8003728:	01007684 	movi	r4,474
 800372c:	000b883a 	mov	r5,zero
 8003730:	80043b00 	call	80043b0 <UsbWrite>
	UsbWrite(COMM_R12,0x0000);  //r1
 8003734:	01007704 	movi	r4,476
 8003738:	000b883a 	mov	r5,zero
 800373c:	80043b00 	call	80043b0 <UsbWrite>
	UsbWrite(COMM_R13,0x0000);  //r1
 8003740:	01007784 	movi	r4,478
 8003744:	000b883a 	mov	r5,zero
 8003748:	80043b00 	call	80043b0 <UsbWrite>
	UsbWrite(COMM_INT_NUM,HUSB_SIE1_INIT_INT); //HUSB_SIE1_INIT_INT
 800374c:	01007084 	movi	r4,450
 8003750:	01401c84 	movi	r5,114
 8003754:	80043b00 	call	80043b0 <UsbWrite>
	IO_write(HPI_MAILBOX,COMM_EXEC_INT);
 8003758:	01000044 	movi	r4,1
 800375c:	01738054 	movui	r5,52737
 8003760:	80035680 	call	8003568 <IO_write>

	while (!(IO_read(HPI_STATUS) & 0xFFFF) )  //read sie1 msg register
 8003764:	0001883a 	nop
 8003768:	010000c4 	movi	r4,3
 800376c:	80035c00 	call	80035c0 <IO_read>
 8003770:	10bfffcc 	andi	r2,r2,65535
 8003774:	103ffc26 	beq	r2,zero,8003768 <__alt_data_end+0xfc003768>
	{
	}
	while (IO_read(HPI_MAILBOX) != COMM_ACK)
 8003778:	0001883a 	nop
 800377c:	01000044 	movi	r4,1
 8003780:	80035c00 	call	80035c0 <IO_read>
 8003784:	10bfffcc 	andi	r2,r2,65535
 8003788:	1083fb58 	cmpnei	r2,r2,4077
 800378c:	10000826 	beq	r2,zero,80037b0 <main+0x19c>
	{
		printf("[ERROR]:routine mailbox data is %x\n",IO_read(HPI_MAILBOX));
 8003790:	01000044 	movi	r4,1
 8003794:	80035c00 	call	80035c0 <IO_read>
 8003798:	10bfffcc 	andi	r2,r2,65535
 800379c:	010200b4 	movhi	r4,2050
 80037a0:	213e5704 	addi	r4,r4,-1700
 80037a4:	100b883a 	mov	r5,r2
 80037a8:	800cfec0 	call	800cfec <printf>
		goto USB_HOT_PLUG;
 80037ac:	003fa706 	br	800364c <__alt_data_end+0xfc00364c>
	}
	// STEP 1b end

	printf("STEP 1 Complete");
 80037b0:	010200b4 	movhi	r4,2050
 80037b4:	213e6004 	addi	r4,r4,-1664
 80037b8:	800cfec0 	call	800cfec <printf>
	// STEP 2 begin
	UsbWrite(COMM_INT_NUM,HUSB_RESET_INT); //husb reset
 80037bc:	01007084 	movi	r4,450
 80037c0:	01401d04 	movi	r5,116
 80037c4:	80043b00 	call	80043b0 <UsbWrite>
	UsbWrite(COMM_R0,0x003c);//reset time
 80037c8:	01007104 	movi	r4,452
 80037cc:	01400f04 	movi	r5,60
 80037d0:	80043b00 	call	80043b0 <UsbWrite>
	UsbWrite(COMM_R1,0x0000);  //port number
 80037d4:	01007184 	movi	r4,454
 80037d8:	000b883a 	mov	r5,zero
 80037dc:	80043b00 	call	80043b0 <UsbWrite>
	UsbWrite(COMM_R2,0x0000);  //r1
 80037e0:	01007204 	movi	r4,456
 80037e4:	000b883a 	mov	r5,zero
 80037e8:	80043b00 	call	80043b0 <UsbWrite>
	UsbWrite(COMM_R3,0x0000);  //r1
 80037ec:	01007284 	movi	r4,458
 80037f0:	000b883a 	mov	r5,zero
 80037f4:	80043b00 	call	80043b0 <UsbWrite>
	UsbWrite(COMM_R4,0x0000);  //r1
 80037f8:	01007304 	movi	r4,460
 80037fc:	000b883a 	mov	r5,zero
 8003800:	80043b00 	call	80043b0 <UsbWrite>
	UsbWrite(COMM_R5,0x0000);  //r1
 8003804:	01007384 	movi	r4,462
 8003808:	000b883a 	mov	r5,zero
 800380c:	80043b00 	call	80043b0 <UsbWrite>
	UsbWrite(COMM_R6,0x0000);  //r1
 8003810:	01007404 	movi	r4,464
 8003814:	000b883a 	mov	r5,zero
 8003818:	80043b00 	call	80043b0 <UsbWrite>
	UsbWrite(COMM_R7,0x0000);  //r1
 800381c:	01007484 	movi	r4,466
 8003820:	000b883a 	mov	r5,zero
 8003824:	80043b00 	call	80043b0 <UsbWrite>
	UsbWrite(COMM_R8,0x0000);  //r1
 8003828:	01007504 	movi	r4,468
 800382c:	000b883a 	mov	r5,zero
 8003830:	80043b00 	call	80043b0 <UsbWrite>
	UsbWrite(COMM_R9,0x0000);  //r1
 8003834:	01007584 	movi	r4,470
 8003838:	000b883a 	mov	r5,zero
 800383c:	80043b00 	call	80043b0 <UsbWrite>
	UsbWrite(COMM_R10,0x0000);  //r1
 8003840:	01007604 	movi	r4,472
 8003844:	000b883a 	mov	r5,zero
 8003848:	80043b00 	call	80043b0 <UsbWrite>
	UsbWrite(COMM_R11,0x0000);  //r1
 800384c:	01007684 	movi	r4,474
 8003850:	000b883a 	mov	r5,zero
 8003854:	80043b00 	call	80043b0 <UsbWrite>
	UsbWrite(COMM_R12,0x0000);  //r1
 8003858:	01007704 	movi	r4,476
 800385c:	000b883a 	mov	r5,zero
 8003860:	80043b00 	call	80043b0 <UsbWrite>
	UsbWrite(COMM_R13,0x0000);  //r1
 8003864:	01007784 	movi	r4,478
 8003868:	000b883a 	mov	r5,zero
 800386c:	80043b00 	call	80043b0 <UsbWrite>

	IO_write(HPI_MAILBOX,COMM_EXEC_INT);
 8003870:	01000044 	movi	r4,1
 8003874:	01738054 	movui	r5,52737
 8003878:	80035680 	call	8003568 <IO_write>

	while (IO_read(HPI_MAILBOX) != COMM_ACK)
 800387c:	0001883a 	nop
 8003880:	01000044 	movi	r4,1
 8003884:	80035c00 	call	80035c0 <IO_read>
 8003888:	10bfffcc 	andi	r2,r2,65535
 800388c:	1083fb58 	cmpnei	r2,r2,4077
 8003890:	10000826 	beq	r2,zero,80038b4 <main+0x2a0>
	{
		printf("[ERROR]:routine mailbox data is %x\n",IO_read(HPI_MAILBOX));
 8003894:	01000044 	movi	r4,1
 8003898:	80035c00 	call	80035c0 <IO_read>
 800389c:	10bfffcc 	andi	r2,r2,65535
 80038a0:	010200b4 	movhi	r4,2050
 80038a4:	213e5704 	addi	r4,r4,-1700
 80038a8:	100b883a 	mov	r5,r2
 80038ac:	800cfec0 	call	800cfec <printf>
		goto USB_HOT_PLUG;
 80038b0:	003f6606 	br	800364c <__alt_data_end+0xfc00364c>
	}
	// STEP 2 end

	ctl_reg = USB1_CTL_REG;
 80038b4:	00b02284 	movi	r2,-16246
 80038b8:	d0a7040d 	sth	r2,-25584(gp)
	no_device = (A_DP_STAT | A_DM_STAT);
 80038bc:	008c0004 	movi	r2,12288
 80038c0:	d0a7048d 	sth	r2,-25582(gp)
	fs_device = A_DP_STAT;
 80038c4:	00880004 	movi	r2,8192
 80038c8:	e0bffc8d 	sth	r2,-14(fp)
	usb_ctl_val = UsbRead(ctl_reg);
 80038cc:	d0a7040b 	ldhu	r2,-25584(gp)
 80038d0:	10bfffcc 	andi	r2,r2,65535
 80038d4:	1009883a 	mov	r4,r2
 80038d8:	80044040 	call	8004404 <UsbRead>
 80038dc:	e0bffb0d 	sth	r2,-20(fp)

	if (!(usb_ctl_val & no_device))
 80038e0:	d0a7048b 	ldhu	r2,-25582(gp)
 80038e4:	e0fffb0b 	ldhu	r3,-20(fp)
 80038e8:	1884703a 	and	r2,r3,r2
 80038ec:	10bfffcc 	andi	r2,r2,65535
 80038f0:	1000341e 	bne	r2,zero,80039c4 <main+0x3b0>
	{
		for(hot_plug_count = 0 ; hot_plug_count < 5 ; hot_plug_count++)
 80038f4:	e03ffc45 	stb	zero,-15(fp)
 80038f8:	00001006 	br	800393c <main+0x328>
		{
			usleep(5*1000);
 80038fc:	0104e204 	movi	r4,5000
 8003900:	801d63c0 	call	801d63c <usleep>
			usb_ctl_val = UsbRead(ctl_reg);
 8003904:	d0a7040b 	ldhu	r2,-25584(gp)
 8003908:	10bfffcc 	andi	r2,r2,65535
 800390c:	1009883a 	mov	r4,r2
 8003910:	80044040 	call	8004404 <UsbRead>
 8003914:	e0bffb0d 	sth	r2,-20(fp)
			if(usb_ctl_val & no_device) break;
 8003918:	d0a7048b 	ldhu	r2,-25582(gp)
 800391c:	e0fffb0b 	ldhu	r3,-20(fp)
 8003920:	1884703a 	and	r2,r3,r2
 8003924:	10bfffcc 	andi	r2,r2,65535
 8003928:	10000126 	beq	r2,zero,8003930 <main+0x31c>
 800392c:	00000606 	br	8003948 <main+0x334>
	fs_device = A_DP_STAT;
	usb_ctl_val = UsbRead(ctl_reg);

	if (!(usb_ctl_val & no_device))
	{
		for(hot_plug_count = 0 ; hot_plug_count < 5 ; hot_plug_count++)
 8003930:	e0bffc43 	ldbu	r2,-15(fp)
 8003934:	10800044 	addi	r2,r2,1
 8003938:	e0bffc45 	stb	r2,-15(fp)
 800393c:	e0bffc43 	ldbu	r2,-15(fp)
 8003940:	10800170 	cmpltui	r2,r2,5
 8003944:	103fed1e 	bne	r2,zero,80038fc <__alt_data_end+0xfc0038fc>
		{
			usleep(5*1000);
			usb_ctl_val = UsbRead(ctl_reg);
			if(usb_ctl_val & no_device) break;
		}
		if(!(usb_ctl_val & no_device))
 8003948:	d0a7048b 	ldhu	r2,-25582(gp)
 800394c:	e0fffb0b 	ldhu	r3,-20(fp)
 8003950:	1884703a 	and	r2,r3,r2
 8003954:	10bfffcc 	andi	r2,r2,65535
 8003958:	1000261e 	bne	r2,zero,80039f4 <main+0x3e0>
		{
			printf("\n[INFO]: no device is present in SIE1!\n");
 800395c:	010200b4 	movhi	r4,2050
 8003960:	213e6404 	addi	r4,r4,-1648
 8003964:	800d0e00 	call	800d0e0 <puts>
			printf("[INFO]: please insert a USB keyboard in SIE1!\n");
 8003968:	010200b4 	movhi	r4,2050
 800396c:	213e6e04 	addi	r4,r4,-1608
 8003970:	800d0e00 	call	800d0e0 <puts>
			while (!(usb_ctl_val & no_device))
 8003974:	00000d06 	br	80039ac <main+0x398>
			{
				usb_ctl_val = UsbRead(ctl_reg);
 8003978:	d0a7040b 	ldhu	r2,-25584(gp)
 800397c:	10bfffcc 	andi	r2,r2,65535
 8003980:	1009883a 	mov	r4,r2
 8003984:	80044040 	call	8004404 <UsbRead>
 8003988:	e0bffb0d 	sth	r2,-20(fp)
				if(usb_ctl_val & no_device)
 800398c:	d0a7048b 	ldhu	r2,-25582(gp)
 8003990:	e0fffb0b 	ldhu	r3,-20(fp)
 8003994:	1884703a 	and	r2,r3,r2
 8003998:	10bfffcc 	andi	r2,r2,65535
 800399c:	10000126 	beq	r2,zero,80039a4 <main+0x390>
					goto USB_HOT_PLUG;
 80039a0:	003f2a06 	br	800364c <__alt_data_end+0xfc00364c>

				usleep(2000);
 80039a4:	0101f404 	movi	r4,2000
 80039a8:	801d63c0 	call	801d63c <usleep>
		}
		if(!(usb_ctl_val & no_device))
		{
			printf("\n[INFO]: no device is present in SIE1!\n");
			printf("[INFO]: please insert a USB keyboard in SIE1!\n");
			while (!(usb_ctl_val & no_device))
 80039ac:	d0a7048b 	ldhu	r2,-25582(gp)
 80039b0:	e0fffb0b 	ldhu	r3,-20(fp)
 80039b4:	1884703a 	and	r2,r3,r2
 80039b8:	10bfffcc 	andi	r2,r2,65535
 80039bc:	103fee26 	beq	r2,zero,8003978 <__alt_data_end+0xfc003978>
 80039c0:	00000c06 	br	80039f4 <main+0x3e0>
		}
	}
	else
	{
		/* check for low speed or full speed by reading D+ and D- lines */
		if (usb_ctl_val & fs_device)
 80039c4:	e0fffb0b 	ldhu	r3,-20(fp)
 80039c8:	e0bffc8b 	ldhu	r2,-14(fp)
 80039cc:	1884703a 	and	r2,r3,r2
 80039d0:	10bfffcc 	andi	r2,r2,65535
 80039d4:	10000426 	beq	r2,zero,80039e8 <main+0x3d4>
		{
			printf("[INFO]: full speed device\n");
 80039d8:	010200b4 	movhi	r4,2050
 80039dc:	213e7a04 	addi	r4,r4,-1560
 80039e0:	800d0e00 	call	800d0e0 <puts>
 80039e4:	00000306 	br	80039f4 <main+0x3e0>
		}
		else
		{
			printf("[INFO]: low speed device\n");
 80039e8:	010200b4 	movhi	r4,2050
 80039ec:	213e8104 	addi	r4,r4,-1532
 80039f0:	800d0e00 	call	800d0e0 <puts>



	// STEP 3 begin
	//------------------------------------------------------set address -----------------------------------------------------------------
	UsbSetAddress();
 80039f4:	80045000 	call	8004500 <UsbSetAddress>

	while (!(IO_read(HPI_STATUS) & HPI_STATUS_SIE1msg_FLAG) )  //read sie1 msg register
 80039f8:	00000306 	br	8003a08 <main+0x3f4>
	{
		UsbSetAddress();
 80039fc:	80045000 	call	8004500 <UsbSetAddress>
		usleep(10*1000);
 8003a00:	0109c404 	movi	r4,10000
 8003a04:	801d63c0 	call	801d63c <usleep>

	// STEP 3 begin
	//------------------------------------------------------set address -----------------------------------------------------------------
	UsbSetAddress();

	while (!(IO_read(HPI_STATUS) & HPI_STATUS_SIE1msg_FLAG) )  //read sie1 msg register
 8003a08:	010000c4 	movi	r4,3
 8003a0c:	80035c00 	call	80035c0 <IO_read>
 8003a10:	10bfffcc 	andi	r2,r2,65535
 8003a14:	1080040c 	andi	r2,r2,16
 8003a18:	103ff826 	beq	r2,zero,80039fc <__alt_data_end+0xfc0039fc>
	{
		UsbSetAddress();
		usleep(10*1000);
	}

	UsbWaitTDListDone();
 8003a1c:	800537c0 	call	800537c <UsbWaitTDListDone>

	IO_write(HPI_ADDR,0x0506); // i
 8003a20:	01000084 	movi	r4,2
 8003a24:	01414184 	movi	r5,1286
 8003a28:	80035680 	call	8003568 <IO_write>
	printf("[ENUM PROCESS]:step 3 TD Status Byte is %x\n",IO_read(HPI_DATA));
 8003a2c:	0009883a 	mov	r4,zero
 8003a30:	80035c00 	call	80035c0 <IO_read>
 8003a34:	10bfffcc 	andi	r2,r2,65535
 8003a38:	010200b4 	movhi	r4,2050
 8003a3c:	213e8804 	addi	r4,r4,-1504
 8003a40:	100b883a 	mov	r5,r2
 8003a44:	800cfec0 	call	800cfec <printf>

	IO_write(HPI_ADDR,0x0508); // n
 8003a48:	01000084 	movi	r4,2
 8003a4c:	01414204 	movi	r5,1288
 8003a50:	80035680 	call	8003568 <IO_write>
	usb_ctl_val = IO_read(HPI_DATA);
 8003a54:	0009883a 	mov	r4,zero
 8003a58:	80035c00 	call	80035c0 <IO_read>
 8003a5c:	e0bffb0d 	sth	r2,-20(fp)
	printf("[ENUM PROCESS]:step 3 TD Control Byte is %x\n",usb_ctl_val);
 8003a60:	e0bffb0b 	ldhu	r2,-20(fp)
 8003a64:	010200b4 	movhi	r4,2050
 8003a68:	213e9304 	addi	r4,r4,-1460
 8003a6c:	100b883a 	mov	r5,r2
 8003a70:	800cfec0 	call	800cfec <printf>
	while (usb_ctl_val != 0x03) // retries occurred
 8003a74:	e0bffb0b 	ldhu	r2,-20(fp)
 8003a78:	108000e0 	cmpeqi	r2,r2,3
 8003a7c:	1000031e 	bne	r2,zero,8003a8c <main+0x478>
	{
		usb_ctl_val = UsbGetRetryCnt();
 8003a80:	80054000 	call	8005400 <UsbGetRetryCnt>
 8003a84:	e0bffb0d 	sth	r2,-20(fp)

		goto USB_HOT_PLUG;
 8003a88:	003ef006 	br	800364c <__alt_data_end+0xfc00364c>
	}

	printf("------------[ENUM PROCESS]:set address done!---------------\n");
 8003a8c:	010200b4 	movhi	r4,2050
 8003a90:	213e9f04 	addi	r4,r4,-1412
 8003a94:	800d0e00 	call	800d0e0 <puts>

	// STEP 4 begin
	//-------------------------------get device descriptor-1 -----------------------------------//
	// TASK: Call the appropriate function for this step.
	UsbGetDeviceDesc1(); 	// Get Device Descriptor -1
 8003a98:	80045fc0 	call	80045fc <UsbGetDeviceDesc1>

	//usleep(10*1000);
	while (!(IO_read(HPI_STATUS) & HPI_STATUS_SIE1msg_FLAG) )  //read sie1 msg register
 8003a9c:	00000306 	br	8003aac <main+0x498>
	{
		// TASK: Call the appropriate function again if it wasn't processed successfully.
		UsbGetDeviceDesc1();
 8003aa0:	80045fc0 	call	80045fc <UsbGetDeviceDesc1>
		usleep(10*1000);
 8003aa4:	0109c404 	movi	r4,10000
 8003aa8:	801d63c0 	call	801d63c <usleep>
	//-------------------------------get device descriptor-1 -----------------------------------//
	// TASK: Call the appropriate function for this step.
	UsbGetDeviceDesc1(); 	// Get Device Descriptor -1

	//usleep(10*1000);
	while (!(IO_read(HPI_STATUS) & HPI_STATUS_SIE1msg_FLAG) )  //read sie1 msg register
 8003aac:	010000c4 	movi	r4,3
 8003ab0:	80035c00 	call	80035c0 <IO_read>
 8003ab4:	10bfffcc 	andi	r2,r2,65535
 8003ab8:	1080040c 	andi	r2,r2,16
 8003abc:	103ff826 	beq	r2,zero,8003aa0 <__alt_data_end+0xfc003aa0>
		// TASK: Call the appropriate function again if it wasn't processed successfully.
		UsbGetDeviceDesc1();
		usleep(10*1000);
	}

	UsbWaitTDListDone();
 8003ac0:	800537c0 	call	800537c <UsbWaitTDListDone>

	IO_write(HPI_ADDR,0x0506);
 8003ac4:	01000084 	movi	r4,2
 8003ac8:	01414184 	movi	r5,1286
 8003acc:	80035680 	call	8003568 <IO_write>
	printf("[ENUM PROCESS]:step 4 TD Status Byte is %x\n",IO_read(HPI_DATA));
 8003ad0:	0009883a 	mov	r4,zero
 8003ad4:	80035c00 	call	80035c0 <IO_read>
 8003ad8:	10bfffcc 	andi	r2,r2,65535
 8003adc:	010200b4 	movhi	r4,2050
 8003ae0:	213eae04 	addi	r4,r4,-1352
 8003ae4:	100b883a 	mov	r5,r2
 8003ae8:	800cfec0 	call	800cfec <printf>

	IO_write(HPI_ADDR,0x0508);
 8003aec:	01000084 	movi	r4,2
 8003af0:	01414204 	movi	r5,1288
 8003af4:	80035680 	call	8003568 <IO_write>
	usb_ctl_val = IO_read(HPI_DATA);
 8003af8:	0009883a 	mov	r4,zero
 8003afc:	80035c00 	call	80035c0 <IO_read>
 8003b00:	e0bffb0d 	sth	r2,-20(fp)
	printf("[ENUM PROCESS]:step 4 TD Control Byte is %x\n",usb_ctl_val);
 8003b04:	e0bffb0b 	ldhu	r2,-20(fp)
 8003b08:	010200b4 	movhi	r4,2050
 8003b0c:	213eb904 	addi	r4,r4,-1308
 8003b10:	100b883a 	mov	r5,r2
 8003b14:	800cfec0 	call	800cfec <printf>
	while (usb_ctl_val != 0x03)
 8003b18:	00000206 	br	8003b24 <main+0x510>
	{
		usb_ctl_val = UsbGetRetryCnt();
 8003b1c:	80054000 	call	8005400 <UsbGetRetryCnt>
 8003b20:	e0bffb0d 	sth	r2,-20(fp)
	printf("[ENUM PROCESS]:step 4 TD Status Byte is %x\n",IO_read(HPI_DATA));

	IO_write(HPI_ADDR,0x0508);
	usb_ctl_val = IO_read(HPI_DATA);
	printf("[ENUM PROCESS]:step 4 TD Control Byte is %x\n",usb_ctl_val);
	while (usb_ctl_val != 0x03)
 8003b24:	e0bffb0b 	ldhu	r2,-20(fp)
 8003b28:	108000d8 	cmpnei	r2,r2,3
 8003b2c:	103ffb1e 	bne	r2,zero,8003b1c <__alt_data_end+0xfc003b1c>
	{
		usb_ctl_val = UsbGetRetryCnt();
	}

	printf("---------------[ENUM PROCESS]:get device descriptor-1 done!-----------------\n");
 8003b30:	010200b4 	movhi	r4,2050
 8003b34:	213ec504 	addi	r4,r4,-1260
 8003b38:	800d0e00 	call	800d0e0 <puts>


	//--------------------------------get device descriptor-2---------------------------------------------//
	//get device descriptor
	// TASK: Call the appropriate function for this step.
	UsbGetDeviceDesc2(); 	// Get Device Descriptor -2
 8003b3c:	80047400 	call	8004740 <UsbGetDeviceDesc2>

	//if no message
	while (!(IO_read(HPI_STATUS) & HPI_STATUS_SIE1msg_FLAG) )  //read sie1 msg register
 8003b40:	00000306 	br	8003b50 <main+0x53c>
	{
		//resend the get device descriptor
		//get device descriptor
		// TASK: Call the appropriate function again if it wasn't processed successfully.
		UsbGetDeviceDesc2();
 8003b44:	80047400 	call	8004740 <UsbGetDeviceDesc2>
		usleep(10*1000);
 8003b48:	0109c404 	movi	r4,10000
 8003b4c:	801d63c0 	call	801d63c <usleep>
	//get device descriptor
	// TASK: Call the appropriate function for this step.
	UsbGetDeviceDesc2(); 	// Get Device Descriptor -2

	//if no message
	while (!(IO_read(HPI_STATUS) & HPI_STATUS_SIE1msg_FLAG) )  //read sie1 msg register
 8003b50:	010000c4 	movi	r4,3
 8003b54:	80035c00 	call	80035c0 <IO_read>
 8003b58:	10bfffcc 	andi	r2,r2,65535
 8003b5c:	1080040c 	andi	r2,r2,16
 8003b60:	103ff826 	beq	r2,zero,8003b44 <__alt_data_end+0xfc003b44>
		// TASK: Call the appropriate function again if it wasn't processed successfully.
		UsbGetDeviceDesc2();
		usleep(10*1000);
	}

	UsbWaitTDListDone();
 8003b64:	800537c0 	call	800537c <UsbWaitTDListDone>

	IO_write(HPI_ADDR,0x0506);
 8003b68:	01000084 	movi	r4,2
 8003b6c:	01414184 	movi	r5,1286
 8003b70:	80035680 	call	8003568 <IO_write>
	printf("[ENUM PROCESS]:step 4 TD Status Byte is %x\n",IO_read(HPI_DATA));
 8003b74:	0009883a 	mov	r4,zero
 8003b78:	80035c00 	call	80035c0 <IO_read>
 8003b7c:	10bfffcc 	andi	r2,r2,65535
 8003b80:	010200b4 	movhi	r4,2050
 8003b84:	213eae04 	addi	r4,r4,-1352
 8003b88:	100b883a 	mov	r5,r2
 8003b8c:	800cfec0 	call	800cfec <printf>

	IO_write(HPI_ADDR,0x0508);
 8003b90:	01000084 	movi	r4,2
 8003b94:	01414204 	movi	r5,1288
 8003b98:	80035680 	call	8003568 <IO_write>
	usb_ctl_val = IO_read(HPI_DATA);
 8003b9c:	0009883a 	mov	r4,zero
 8003ba0:	80035c00 	call	80035c0 <IO_read>
 8003ba4:	e0bffb0d 	sth	r2,-20(fp)
	printf("[ENUM PROCESS]:step 4 TD Control Byte is %x\n",usb_ctl_val);
 8003ba8:	e0bffb0b 	ldhu	r2,-20(fp)
 8003bac:	010200b4 	movhi	r4,2050
 8003bb0:	213eb904 	addi	r4,r4,-1308
 8003bb4:	100b883a 	mov	r5,r2
 8003bb8:	800cfec0 	call	800cfec <printf>
	while (usb_ctl_val != 0x03)
 8003bbc:	00000206 	br	8003bc8 <main+0x5b4>
	{
		usb_ctl_val = UsbGetRetryCnt();
 8003bc0:	80054000 	call	8005400 <UsbGetRetryCnt>
 8003bc4:	e0bffb0d 	sth	r2,-20(fp)
	printf("[ENUM PROCESS]:step 4 TD Status Byte is %x\n",IO_read(HPI_DATA));

	IO_write(HPI_ADDR,0x0508);
	usb_ctl_val = IO_read(HPI_DATA);
	printf("[ENUM PROCESS]:step 4 TD Control Byte is %x\n",usb_ctl_val);
	while (usb_ctl_val != 0x03)
 8003bc8:	e0bffb0b 	ldhu	r2,-20(fp)
 8003bcc:	108000d8 	cmpnei	r2,r2,3
 8003bd0:	103ffb1e 	bne	r2,zero,8003bc0 <__alt_data_end+0xfc003bc0>
	{
		usb_ctl_val = UsbGetRetryCnt();
	}

	printf("------------[ENUM PROCESS]:get device descriptor-2 done!--------------\n");
 8003bd4:	010200b4 	movhi	r4,2050
 8003bd8:	213ed904 	addi	r4,r4,-1180
 8003bdc:	800d0e00 	call	800d0e0 <puts>


	// STEP 5 begin
	//-----------------------------------get configuration descriptor -1 ----------------------------------//
	// TASK: Call the appropriate function for this step.
	UsbGetConfigDesc1(); 	// Get Configuration Descriptor -1
 8003be0:	80049140 	call	8004914 <UsbGetConfigDesc1>

	//if no message
	while (!(IO_read(HPI_STATUS) & HPI_STATUS_SIE1msg_FLAG) )  //read sie1 msg register
 8003be4:	00000306 	br	8003bf4 <main+0x5e0>
	{
		//resend the get device descriptor
		//get device descriptor

		// TASK: Call the appropriate function again if it wasn't processed successfully.
		UsbGetConfigDesc1();
 8003be8:	80049140 	call	8004914 <UsbGetConfigDesc1>
		usleep(10*1000);
 8003bec:	0109c404 	movi	r4,10000
 8003bf0:	801d63c0 	call	801d63c <usleep>
	//-----------------------------------get configuration descriptor -1 ----------------------------------//
	// TASK: Call the appropriate function for this step.
	UsbGetConfigDesc1(); 	// Get Configuration Descriptor -1

	//if no message
	while (!(IO_read(HPI_STATUS) & HPI_STATUS_SIE1msg_FLAG) )  //read sie1 msg register
 8003bf4:	010000c4 	movi	r4,3
 8003bf8:	80035c00 	call	80035c0 <IO_read>
 8003bfc:	10bfffcc 	andi	r2,r2,65535
 8003c00:	1080040c 	andi	r2,r2,16
 8003c04:	103ff826 	beq	r2,zero,8003be8 <__alt_data_end+0xfc003be8>
		// TASK: Call the appropriate function again if it wasn't processed successfully.
		UsbGetConfigDesc1();
		usleep(10*1000);
	}

	UsbWaitTDListDone();
 8003c08:	800537c0 	call	800537c <UsbWaitTDListDone>

	IO_write(HPI_ADDR,0x0506);
 8003c0c:	01000084 	movi	r4,2
 8003c10:	01414184 	movi	r5,1286
 8003c14:	80035680 	call	8003568 <IO_write>
	printf("[ENUM PROCESS]:step 5 TD Status Byte is %x\n",IO_read(HPI_DATA));
 8003c18:	0009883a 	mov	r4,zero
 8003c1c:	80035c00 	call	80035c0 <IO_read>
 8003c20:	10bfffcc 	andi	r2,r2,65535
 8003c24:	010200b4 	movhi	r4,2050
 8003c28:	213eeb04 	addi	r4,r4,-1108
 8003c2c:	100b883a 	mov	r5,r2
 8003c30:	800cfec0 	call	800cfec <printf>

	IO_write(HPI_ADDR,0x0508);
 8003c34:	01000084 	movi	r4,2
 8003c38:	01414204 	movi	r5,1288
 8003c3c:	80035680 	call	8003568 <IO_write>
	usb_ctl_val = IO_read(HPI_DATA);
 8003c40:	0009883a 	mov	r4,zero
 8003c44:	80035c00 	call	80035c0 <IO_read>
 8003c48:	e0bffb0d 	sth	r2,-20(fp)
	printf("[ENUM PROCESS]:step 5 TD Control Byte is %x\n",usb_ctl_val);
 8003c4c:	e0bffb0b 	ldhu	r2,-20(fp)
 8003c50:	010200b4 	movhi	r4,2050
 8003c54:	213ef604 	addi	r4,r4,-1064
 8003c58:	100b883a 	mov	r5,r2
 8003c5c:	800cfec0 	call	800cfec <printf>
	while (usb_ctl_val != 0x03)
 8003c60:	00000206 	br	8003c6c <main+0x658>
	{
		usb_ctl_val = UsbGetRetryCnt();
 8003c64:	80054000 	call	8005400 <UsbGetRetryCnt>
 8003c68:	e0bffb0d 	sth	r2,-20(fp)
	printf("[ENUM PROCESS]:step 5 TD Status Byte is %x\n",IO_read(HPI_DATA));

	IO_write(HPI_ADDR,0x0508);
	usb_ctl_val = IO_read(HPI_DATA);
	printf("[ENUM PROCESS]:step 5 TD Control Byte is %x\n",usb_ctl_val);
	while (usb_ctl_val != 0x03)
 8003c6c:	e0bffb0b 	ldhu	r2,-20(fp)
 8003c70:	108000d8 	cmpnei	r2,r2,3
 8003c74:	103ffb1e 	bne	r2,zero,8003c64 <__alt_data_end+0xfc003c64>
	{
		usb_ctl_val = UsbGetRetryCnt();
	}
	printf("------------[ENUM PROCESS]:get configuration descriptor-1 pass------------\n");
 8003c78:	010200b4 	movhi	r4,2050
 8003c7c:	213f0204 	addi	r4,r4,-1016
 8003c80:	800d0e00 	call	800d0e0 <puts>

	// STEP 6 begin
	//-----------------------------------get configuration descriptor-2------------------------------------//
	//get device descriptor
	// TASK: Call the appropriate function for this step.
	UsbGetConfigDesc2(); 	// Get Configuration Descriptor -2
 8003c84:	8004aa00 	call	8004aa0 <UsbGetConfigDesc2>

	usleep(100*1000);
 8003c88:	010000b4 	movhi	r4,2
 8003c8c:	2121a804 	addi	r4,r4,-31072
 8003c90:	801d63c0 	call	801d63c <usleep>
	//if no message
	while (!(IO_read(HPI_STATUS) & HPI_STATUS_SIE1msg_FLAG) )  //read sie1 msg register
 8003c94:	00000306 	br	8003ca4 <main+0x690>
	{
		// TASK: Call the appropriate function again if it wasn't processed successfully.
		UsbGetConfigDesc2();
 8003c98:	8004aa00 	call	8004aa0 <UsbGetConfigDesc2>
		usleep(10*1000);
 8003c9c:	0109c404 	movi	r4,10000
 8003ca0:	801d63c0 	call	801d63c <usleep>
	// TASK: Call the appropriate function for this step.
	UsbGetConfigDesc2(); 	// Get Configuration Descriptor -2

	usleep(100*1000);
	//if no message
	while (!(IO_read(HPI_STATUS) & HPI_STATUS_SIE1msg_FLAG) )  //read sie1 msg register
 8003ca4:	010000c4 	movi	r4,3
 8003ca8:	80035c00 	call	80035c0 <IO_read>
 8003cac:	10bfffcc 	andi	r2,r2,65535
 8003cb0:	1080040c 	andi	r2,r2,16
 8003cb4:	103ff826 	beq	r2,zero,8003c98 <__alt_data_end+0xfc003c98>
		// TASK: Call the appropriate function again if it wasn't processed successfully.
		UsbGetConfigDesc2();
		usleep(10*1000);
	}

	UsbWaitTDListDone();
 8003cb8:	800537c0 	call	800537c <UsbWaitTDListDone>

	IO_write(HPI_ADDR,0x0506);
 8003cbc:	01000084 	movi	r4,2
 8003cc0:	01414184 	movi	r5,1286
 8003cc4:	80035680 	call	8003568 <IO_write>
	printf("[ENUM PROCESS]:step 6 TD Status Byte is %x\n",IO_read(HPI_DATA));
 8003cc8:	0009883a 	mov	r4,zero
 8003ccc:	80035c00 	call	80035c0 <IO_read>
 8003cd0:	10bfffcc 	andi	r2,r2,65535
 8003cd4:	010200b4 	movhi	r4,2050
 8003cd8:	213f1504 	addi	r4,r4,-940
 8003cdc:	100b883a 	mov	r5,r2
 8003ce0:	800cfec0 	call	800cfec <printf>

	IO_write(HPI_ADDR,0x0508);
 8003ce4:	01000084 	movi	r4,2
 8003ce8:	01414204 	movi	r5,1288
 8003cec:	80035680 	call	8003568 <IO_write>
	usb_ctl_val = IO_read(HPI_DATA);
 8003cf0:	0009883a 	mov	r4,zero
 8003cf4:	80035c00 	call	80035c0 <IO_read>
 8003cf8:	e0bffb0d 	sth	r2,-20(fp)
	printf("[ENUM PROCESS]:step 6 TD Control Byte is %x\n",usb_ctl_val);
 8003cfc:	e0bffb0b 	ldhu	r2,-20(fp)
 8003d00:	010200b4 	movhi	r4,2050
 8003d04:	213f2004 	addi	r4,r4,-896
 8003d08:	100b883a 	mov	r5,r2
 8003d0c:	800cfec0 	call	800cfec <printf>
	while (usb_ctl_val != 0x03)
 8003d10:	00000206 	br	8003d1c <main+0x708>
	{
		usb_ctl_val = UsbGetRetryCnt();
 8003d14:	80054000 	call	8005400 <UsbGetRetryCnt>
 8003d18:	e0bffb0d 	sth	r2,-20(fp)
	printf("[ENUM PROCESS]:step 6 TD Status Byte is %x\n",IO_read(HPI_DATA));

	IO_write(HPI_ADDR,0x0508);
	usb_ctl_val = IO_read(HPI_DATA);
	printf("[ENUM PROCESS]:step 6 TD Control Byte is %x\n",usb_ctl_val);
	while (usb_ctl_val != 0x03)
 8003d1c:	e0bffb0b 	ldhu	r2,-20(fp)
 8003d20:	108000d8 	cmpnei	r2,r2,3
 8003d24:	103ffb1e 	bne	r2,zero,8003d14 <__alt_data_end+0xfc003d14>
	{
		usb_ctl_val = UsbGetRetryCnt();
	}


	printf("-----------[ENUM PROCESS]:get configuration descriptor-2 done!------------\n");
 8003d28:	010200b4 	movhi	r4,2050
 8003d2c:	213f2c04 	addi	r4,r4,-848
 8003d30:	800d0e00 	call	800d0e0 <puts>


	// ---------------------------------get device info---------------------------------------------//

	// TASK: Write the address to read from the memory for byte 7 of the interface descriptor to HPI_ADDR.
	IO_write(HPI_ADDR,0x056c);
 8003d34:	01000084 	movi	r4,2
 8003d38:	01415b04 	movi	r5,1388
 8003d3c:	80035680 	call	8003568 <IO_write>
	code = IO_read(HPI_DATA);
 8003d40:	0009883a 	mov	r4,zero
 8003d44:	80035c00 	call	80035c0 <IO_read>
 8003d48:	e0bffe8d 	sth	r2,-6(fp)
	code = code & 0x003;
 8003d4c:	e0bffe8b 	ldhu	r2,-6(fp)
 8003d50:	108000cc 	andi	r2,r2,3
 8003d54:	e0bffe8d 	sth	r2,-6(fp)
	printf("\ncode = %x\n", code);
 8003d58:	e0bffe8b 	ldhu	r2,-6(fp)
 8003d5c:	010200b4 	movhi	r4,2050
 8003d60:	213f3f04 	addi	r4,r4,-772
 8003d64:	100b883a 	mov	r5,r2
 8003d68:	800cfec0 	call	800cfec <printf>

	if (code == 0x01)
 8003d6c:	e0bffe8b 	ldhu	r2,-6(fp)
 8003d70:	10800058 	cmpnei	r2,r2,1
 8003d74:	1000041e 	bne	r2,zero,8003d88 <main+0x774>
	{
		printf("\n[INFO]:check TD rec data7 \n[INFO]:Keyboard Detected!!!\n\n");
 8003d78:	010200b4 	movhi	r4,2050
 8003d7c:	213f4204 	addi	r4,r4,-760
 8003d80:	800d0e00 	call	800d0e0 <puts>
 8003d84:	00000306 	br	8003d94 <main+0x780>
	}
	else
	{
		printf("\n[INFO]:Keyboard Not Detected!!! \n\n");
 8003d88:	010200b4 	movhi	r4,2050
 8003d8c:	213f5104 	addi	r4,r4,-700
 8003d90:	800d0e00 	call	800d0e0 <puts>
	}

	// TASK: Write the address to read from the memory for the endpoint descriptor to HPI_ADDR.

	IO_write(HPI_ADDR,0x0576);
 8003d94:	01000084 	movi	r4,2
 8003d98:	01415d84 	movi	r5,1398
 8003d9c:	80035680 	call	8003568 <IO_write>
	IO_write(HPI_DATA,0x073F);
 8003da0:	0009883a 	mov	r4,zero
 8003da4:	0141cfc4 	movi	r5,1855
 8003da8:	80035680 	call	8003568 <IO_write>
	IO_write(HPI_DATA,0x8105);
 8003dac:	0009883a 	mov	r4,zero
 8003db0:	01604154 	movui	r5,33029
 8003db4:	80035680 	call	8003568 <IO_write>
	IO_write(HPI_DATA,0x0003);
 8003db8:	0009883a 	mov	r4,zero
 8003dbc:	014000c4 	movi	r5,3
 8003dc0:	80035680 	call	8003568 <IO_write>
	IO_write(HPI_DATA,0x0008);
 8003dc4:	0009883a 	mov	r4,zero
 8003dc8:	01400204 	movi	r5,8
 8003dcc:	80035680 	call	8003568 <IO_write>
	IO_write(HPI_DATA,0xAC0A);
 8003dd0:	0009883a 	mov	r4,zero
 8003dd4:	016b0294 	movui	r5,44042
 8003dd8:	80035680 	call	8003568 <IO_write>
	UsbWrite(HUSB_SIE1_pCurrentTDPtr,0x0576); //HUSB_SIE1_pCurrentTDPtr
 8003ddc:	01006c04 	movi	r4,432
 8003de0:	01415d84 	movi	r5,1398
 8003de4:	80043b00 	call	80043b0 <UsbWrite>

	//data_size = (IO_read(HPI_DATA)>>8)&0x0ff;
	//data_size = 0x08;//(IO_read(HPI_DATA))&0x0ff;
	//UsbPrintMem();
	IO_write(HPI_ADDR,0x057c);
 8003de8:	01000084 	movi	r4,2
 8003dec:	01415f04 	movi	r5,1404
 8003df0:	80035680 	call	8003568 <IO_write>
	data_size = (IO_read(HPI_DATA))&0x0ff;
 8003df4:	0009883a 	mov	r4,zero
 8003df8:	80035c00 	call	80035c0 <IO_read>
 8003dfc:	e0bfff05 	stb	r2,-4(fp)
	printf("[ENUM PROCESS]:data packet size is %d\n",data_size);
 8003e00:	e0bfff03 	ldbu	r2,-4(fp)
 8003e04:	010200b4 	movhi	r4,2050
 8003e08:	213f5a04 	addi	r4,r4,-664
 8003e0c:	100b883a 	mov	r5,r2
 8003e10:	800cfec0 	call	800cfec <printf>
	// STEP 7 begin
	//------------------------------------set configuration -----------------------------------------//
	// TASK: Call the appropriate function for this step.
	UsbSetConfig();		// Set Configuration
 8003e14:	8004d040 	call	8004d04 <UsbSetConfig>

	while (!(IO_read(HPI_STATUS) & HPI_STATUS_SIE1msg_FLAG) )  //read sie1 msg register
 8003e18:	00000306 	br	8003e28 <main+0x814>
	{
		// TASK: Call the appropriate function again if it wasn't processed successfully.
		UsbSetConfig();		// Set Configuration
 8003e1c:	8004d040 	call	8004d04 <UsbSetConfig>
		usleep(10*1000);
 8003e20:	0109c404 	movi	r4,10000
 8003e24:	801d63c0 	call	801d63c <usleep>
	// STEP 7 begin
	//------------------------------------set configuration -----------------------------------------//
	// TASK: Call the appropriate function for this step.
	UsbSetConfig();		// Set Configuration

	while (!(IO_read(HPI_STATUS) & HPI_STATUS_SIE1msg_FLAG) )  //read sie1 msg register
 8003e28:	010000c4 	movi	r4,3
 8003e2c:	80035c00 	call	80035c0 <IO_read>
 8003e30:	10bfffcc 	andi	r2,r2,65535
 8003e34:	1080040c 	andi	r2,r2,16
 8003e38:	103ff826 	beq	r2,zero,8003e1c <__alt_data_end+0xfc003e1c>
		// TASK: Call the appropriate function again if it wasn't processed successfully.
		UsbSetConfig();		// Set Configuration
		usleep(10*1000);
	}

	UsbWaitTDListDone();
 8003e3c:	800537c0 	call	800537c <UsbWaitTDListDone>

	IO_write(HPI_ADDR,0x0506);
 8003e40:	01000084 	movi	r4,2
 8003e44:	01414184 	movi	r5,1286
 8003e48:	80035680 	call	8003568 <IO_write>
	printf("[ENUM PROCESS]:step 7 TD Status Byte is %x\n",IO_read(HPI_DATA));
 8003e4c:	0009883a 	mov	r4,zero
 8003e50:	80035c00 	call	80035c0 <IO_read>
 8003e54:	10bfffcc 	andi	r2,r2,65535
 8003e58:	010200b4 	movhi	r4,2050
 8003e5c:	213f6404 	addi	r4,r4,-624
 8003e60:	100b883a 	mov	r5,r2
 8003e64:	800cfec0 	call	800cfec <printf>

	IO_write(HPI_ADDR,0x0508);
 8003e68:	01000084 	movi	r4,2
 8003e6c:	01414204 	movi	r5,1288
 8003e70:	80035680 	call	8003568 <IO_write>
	usb_ctl_val = IO_read(HPI_DATA);
 8003e74:	0009883a 	mov	r4,zero
 8003e78:	80035c00 	call	80035c0 <IO_read>
 8003e7c:	e0bffb0d 	sth	r2,-20(fp)
	printf("[ENUM PROCESS]:step 7 TD Control Byte is %x\n",usb_ctl_val);
 8003e80:	e0bffb0b 	ldhu	r2,-20(fp)
 8003e84:	010200b4 	movhi	r4,2050
 8003e88:	213f6f04 	addi	r4,r4,-580
 8003e8c:	100b883a 	mov	r5,r2
 8003e90:	800cfec0 	call	800cfec <printf>
	while (usb_ctl_val != 0x03)
 8003e94:	00000206 	br	8003ea0 <main+0x88c>
	{
		usb_ctl_val = UsbGetRetryCnt();
 8003e98:	80054000 	call	8005400 <UsbGetRetryCnt>
 8003e9c:	e0bffb0d 	sth	r2,-20(fp)
	printf("[ENUM PROCESS]:step 7 TD Status Byte is %x\n",IO_read(HPI_DATA));

	IO_write(HPI_ADDR,0x0508);
	usb_ctl_val = IO_read(HPI_DATA);
	printf("[ENUM PROCESS]:step 7 TD Control Byte is %x\n",usb_ctl_val);
	while (usb_ctl_val != 0x03)
 8003ea0:	e0bffb0b 	ldhu	r2,-20(fp)
 8003ea4:	108000d8 	cmpnei	r2,r2,3
 8003ea8:	103ffb1e 	bne	r2,zero,8003e98 <__alt_data_end+0xfc003e98>
	{
		usb_ctl_val = UsbGetRetryCnt();
	}

	printf("------------[ENUM PROCESS]:set configuration done!-------------------\n");
 8003eac:	010200b4 	movhi	r4,2050
 8003eb0:	213f7b04 	addi	r4,r4,-532
 8003eb4:	800d0e00 	call	800d0e0 <puts>

	//----------------------------------------------class request out ------------------------------------------//
	// TASK: Call the appropriate function for this step.
	UsbClassRequest();
 8003eb8:	8004e000 	call	8004e00 <UsbClassRequest>

	while (!(IO_read(HPI_STATUS) & HPI_STATUS_SIE1msg_FLAG) )  //read sie1 msg register
 8003ebc:	00000306 	br	8003ecc <main+0x8b8>
	{
		// TASK: Call the appropriate function again if it wasn't processed successfully.
		UsbClassRequest();
 8003ec0:	8004e000 	call	8004e00 <UsbClassRequest>
		usleep(10*1000);
 8003ec4:	0109c404 	movi	r4,10000
 8003ec8:	801d63c0 	call	801d63c <usleep>

	//----------------------------------------------class request out ------------------------------------------//
	// TASK: Call the appropriate function for this step.
	UsbClassRequest();

	while (!(IO_read(HPI_STATUS) & HPI_STATUS_SIE1msg_FLAG) )  //read sie1 msg register
 8003ecc:	010000c4 	movi	r4,3
 8003ed0:	80035c00 	call	80035c0 <IO_read>
 8003ed4:	10bfffcc 	andi	r2,r2,65535
 8003ed8:	1080040c 	andi	r2,r2,16
 8003edc:	103ff826 	beq	r2,zero,8003ec0 <__alt_data_end+0xfc003ec0>
		// TASK: Call the appropriate function again if it wasn't processed successfully.
		UsbClassRequest();
		usleep(10*1000);
	}

	UsbWaitTDListDone();
 8003ee0:	800537c0 	call	800537c <UsbWaitTDListDone>

	IO_write(HPI_ADDR,0x0506);
 8003ee4:	01000084 	movi	r4,2
 8003ee8:	01414184 	movi	r5,1286
 8003eec:	80035680 	call	8003568 <IO_write>
	printf("[ENUM PROCESS]:step 8 TD Status Byte is %x\n",IO_read(HPI_DATA));
 8003ef0:	0009883a 	mov	r4,zero
 8003ef4:	80035c00 	call	80035c0 <IO_read>
 8003ef8:	10bfffcc 	andi	r2,r2,65535
 8003efc:	010200b4 	movhi	r4,2050
 8003f00:	213f8d04 	addi	r4,r4,-460
 8003f04:	100b883a 	mov	r5,r2
 8003f08:	800cfec0 	call	800cfec <printf>

	IO_write(HPI_ADDR,0x0508);
 8003f0c:	01000084 	movi	r4,2
 8003f10:	01414204 	movi	r5,1288
 8003f14:	80035680 	call	8003568 <IO_write>
	usb_ctl_val = IO_read(HPI_DATA);
 8003f18:	0009883a 	mov	r4,zero
 8003f1c:	80035c00 	call	80035c0 <IO_read>
 8003f20:	e0bffb0d 	sth	r2,-20(fp)
	printf("[ENUM PROCESS]:step 8 TD Control Byte is %x\n",usb_ctl_val);
 8003f24:	e0bffb0b 	ldhu	r2,-20(fp)
 8003f28:	010200b4 	movhi	r4,2050
 8003f2c:	213f9804 	addi	r4,r4,-416
 8003f30:	100b883a 	mov	r5,r2
 8003f34:	800cfec0 	call	800cfec <printf>
	while (usb_ctl_val != 0x03)
 8003f38:	00000206 	br	8003f44 <main+0x930>
	{
		usb_ctl_val = UsbGetRetryCnt();
 8003f3c:	80054000 	call	8005400 <UsbGetRetryCnt>
 8003f40:	e0bffb0d 	sth	r2,-20(fp)
	printf("[ENUM PROCESS]:step 8 TD Status Byte is %x\n",IO_read(HPI_DATA));

	IO_write(HPI_ADDR,0x0508);
	usb_ctl_val = IO_read(HPI_DATA);
	printf("[ENUM PROCESS]:step 8 TD Control Byte is %x\n",usb_ctl_val);
	while (usb_ctl_val != 0x03)
 8003f44:	e0bffb0b 	ldhu	r2,-20(fp)
 8003f48:	108000d8 	cmpnei	r2,r2,3
 8003f4c:	103ffb1e 	bne	r2,zero,8003f3c <__alt_data_end+0xfc003f3c>
	{
		usb_ctl_val = UsbGetRetryCnt();
	}


	printf("------------[ENUM PROCESS]:class request out done!-------------------\n");
 8003f50:	010200b4 	movhi	r4,2050
 8003f54:	213fa404 	addi	r4,r4,-368
 8003f58:	800d0e00 	call	800d0e0 <puts>

	// STEP 8 begin
	//----------------------------------get descriptor(class 0x21 = HID) request out --------------------------------//
	// TASK: Call the appropriate function for this step.
	UsbGetHidDesc();
 8003f5c:	8004efc0 	call	8004efc <UsbGetHidDesc>

	while (!(IO_read(HPI_STATUS) & HPI_STATUS_SIE1msg_FLAG) )  //read sie1 msg register
 8003f60:	00000306 	br	8003f70 <main+0x95c>
	{
		// TASK: Call the appropriate function again if it wasn't processed successfully.
		UsbGetHidDesc();
 8003f64:	8004efc0 	call	8004efc <UsbGetHidDesc>
		usleep(10*1000);
 8003f68:	0109c404 	movi	r4,10000
 8003f6c:	801d63c0 	call	801d63c <usleep>
	// STEP 8 begin
	//----------------------------------get descriptor(class 0x21 = HID) request out --------------------------------//
	// TASK: Call the appropriate function for this step.
	UsbGetHidDesc();

	while (!(IO_read(HPI_STATUS) & HPI_STATUS_SIE1msg_FLAG) )  //read sie1 msg register
 8003f70:	010000c4 	movi	r4,3
 8003f74:	80035c00 	call	80035c0 <IO_read>
 8003f78:	10bfffcc 	andi	r2,r2,65535
 8003f7c:	1080040c 	andi	r2,r2,16
 8003f80:	103ff826 	beq	r2,zero,8003f64 <__alt_data_end+0xfc003f64>
		// TASK: Call the appropriate function again if it wasn't processed successfully.
		UsbGetHidDesc();
		usleep(10*1000);
	}

	UsbWaitTDListDone();
 8003f84:	800537c0 	call	800537c <UsbWaitTDListDone>

	IO_write(HPI_ADDR,0x0506);
 8003f88:	01000084 	movi	r4,2
 8003f8c:	01414184 	movi	r5,1286
 8003f90:	80035680 	call	8003568 <IO_write>
	printf("[ENUM PROCESS]:step 8 TD Status Byte is %x\n",IO_read(HPI_DATA));
 8003f94:	0009883a 	mov	r4,zero
 8003f98:	80035c00 	call	80035c0 <IO_read>
 8003f9c:	10bfffcc 	andi	r2,r2,65535
 8003fa0:	010200b4 	movhi	r4,2050
 8003fa4:	213f8d04 	addi	r4,r4,-460
 8003fa8:	100b883a 	mov	r5,r2
 8003fac:	800cfec0 	call	800cfec <printf>

	IO_write(HPI_ADDR,0x0508);
 8003fb0:	01000084 	movi	r4,2
 8003fb4:	01414204 	movi	r5,1288
 8003fb8:	80035680 	call	8003568 <IO_write>
	usb_ctl_val = IO_read(HPI_DATA);
 8003fbc:	0009883a 	mov	r4,zero
 8003fc0:	80035c00 	call	80035c0 <IO_read>
 8003fc4:	e0bffb0d 	sth	r2,-20(fp)
	printf("[ENUM PROCESS]:step 8 TD Control Byte is %x\n",usb_ctl_val);
 8003fc8:	e0bffb0b 	ldhu	r2,-20(fp)
 8003fcc:	010200b4 	movhi	r4,2050
 8003fd0:	213f9804 	addi	r4,r4,-416
 8003fd4:	100b883a 	mov	r5,r2
 8003fd8:	800cfec0 	call	800cfec <printf>
	while (usb_ctl_val != 0x03)
 8003fdc:	00000206 	br	8003fe8 <main+0x9d4>
	{
		usb_ctl_val = UsbGetRetryCnt();
 8003fe0:	80054000 	call	8005400 <UsbGetRetryCnt>
 8003fe4:	e0bffb0d 	sth	r2,-20(fp)
	printf("[ENUM PROCESS]:step 8 TD Status Byte is %x\n",IO_read(HPI_DATA));

	IO_write(HPI_ADDR,0x0508);
	usb_ctl_val = IO_read(HPI_DATA);
	printf("[ENUM PROCESS]:step 8 TD Control Byte is %x\n",usb_ctl_val);
	while (usb_ctl_val != 0x03)
 8003fe8:	e0bffb0b 	ldhu	r2,-20(fp)
 8003fec:	108000d8 	cmpnei	r2,r2,3
 8003ff0:	103ffb1e 	bne	r2,zero,8003fe0 <__alt_data_end+0xfc003fe0>
	{
		usb_ctl_val = UsbGetRetryCnt();
	}

	printf("------------[ENUM PROCESS]:get descriptor (class 0x21) done!-------------------\n");
 8003ff4:	010200b4 	movhi	r4,2050
 8003ff8:	213fb604 	addi	r4,r4,-296
 8003ffc:	800d0e00 	call	800d0e0 <puts>

	// STEP 9 begin
	//-------------------------------get descriptor (class 0x22 = report)-------------------------------------------//
	// TASK: Call the appropriate function for this step.
	UsbGetReportDesc();
 8004000:	80050400 	call	8005040 <UsbGetReportDesc>
	//if no message
	while (!(IO_read(HPI_STATUS) & HPI_STATUS_SIE1msg_FLAG) )  //read sie1 msg register
 8004004:	00000306 	br	8004014 <main+0xa00>
	{
		// TASK: Call the appropriate function again if it wasn't processed successfully.
		UsbGetReportDesc();
 8004008:	80050400 	call	8005040 <UsbGetReportDesc>
		usleep(10*1000);
 800400c:	0109c404 	movi	r4,10000
 8004010:	801d63c0 	call	801d63c <usleep>
	// STEP 9 begin
	//-------------------------------get descriptor (class 0x22 = report)-------------------------------------------//
	// TASK: Call the appropriate function for this step.
	UsbGetReportDesc();
	//if no message
	while (!(IO_read(HPI_STATUS) & HPI_STATUS_SIE1msg_FLAG) )  //read sie1 msg register
 8004014:	010000c4 	movi	r4,3
 8004018:	80035c00 	call	80035c0 <IO_read>
 800401c:	10bfffcc 	andi	r2,r2,65535
 8004020:	1080040c 	andi	r2,r2,16
 8004024:	103ff826 	beq	r2,zero,8004008 <__alt_data_end+0xfc004008>
		// TASK: Call the appropriate function again if it wasn't processed successfully.
		UsbGetReportDesc();
		usleep(10*1000);
	}

	UsbWaitTDListDone();
 8004028:	800537c0 	call	800537c <UsbWaitTDListDone>

	IO_write(HPI_ADDR,0x0506);
 800402c:	01000084 	movi	r4,2
 8004030:	01414184 	movi	r5,1286
 8004034:	80035680 	call	8003568 <IO_write>
	printf("[ENUM PROCESS]: step 9 TD Status Byte is %x\n",IO_read(HPI_DATA));
 8004038:	0009883a 	mov	r4,zero
 800403c:	80035c00 	call	80035c0 <IO_read>
 8004040:	10bfffcc 	andi	r2,r2,65535
 8004044:	010200b4 	movhi	r4,2050
 8004048:	213fca04 	addi	r4,r4,-216
 800404c:	100b883a 	mov	r5,r2
 8004050:	800cfec0 	call	800cfec <printf>

	IO_write(HPI_ADDR,0x0508);
 8004054:	01000084 	movi	r4,2
 8004058:	01414204 	movi	r5,1288
 800405c:	80035680 	call	8003568 <IO_write>
	usb_ctl_val = IO_read(HPI_DATA);
 8004060:	0009883a 	mov	r4,zero
 8004064:	80035c00 	call	80035c0 <IO_read>
 8004068:	e0bffb0d 	sth	r2,-20(fp)
	printf("[ENUM PROCESS]: step 9 TD Control Byte is %x\n",usb_ctl_val);
 800406c:	e0bffb0b 	ldhu	r2,-20(fp)
 8004070:	010200b4 	movhi	r4,2050
 8004074:	213fd604 	addi	r4,r4,-168
 8004078:	100b883a 	mov	r5,r2
 800407c:	800cfec0 	call	800cfec <printf>
	while (usb_ctl_val != 0x03)
 8004080:	00000206 	br	800408c <main+0xa78>
	{
		usb_ctl_val = UsbGetRetryCnt();
 8004084:	80054000 	call	8005400 <UsbGetRetryCnt>
 8004088:	e0bffb0d 	sth	r2,-20(fp)
	printf("[ENUM PROCESS]: step 9 TD Status Byte is %x\n",IO_read(HPI_DATA));

	IO_write(HPI_ADDR,0x0508);
	usb_ctl_val = IO_read(HPI_DATA);
	printf("[ENUM PROCESS]: step 9 TD Control Byte is %x\n",usb_ctl_val);
	while (usb_ctl_val != 0x03)
 800408c:	e0bffb0b 	ldhu	r2,-20(fp)
 8004090:	108000d8 	cmpnei	r2,r2,3
 8004094:	103ffb1e 	bne	r2,zero,8004084 <__alt_data_end+0xfc004084>
	{
		usb_ctl_val = UsbGetRetryCnt();
	}

	printf("---------------[ENUM PROCESS]:get descriptor (class 0x22) done!----------------\n");
 8004098:	010200b4 	movhi	r4,2050
 800409c:	213fe204 	addi	r4,r4,-120
 80040a0:	800d0e00 	call	800d0e0 <puts>



	//-----------------------------------get keycode value------------------------------------------------//
	usleep(10000);
 80040a4:	0109c404 	movi	r4,10000
 80040a8:	801d63c0 	call	801d63c <usleep>
	printf("\n\nPress E to edit the filters\n");
 80040ac:	010200b4 	movhi	r4,2050
 80040b0:	213ff604 	addi	r4,r4,-40
 80040b4:	800d0e00 	call	800d0e0 <puts>
	*to_hw_sig = 6;
 80040b8:	00881804 	movi	r2,8288
 80040bc:	00c00184 	movi	r3,6
 80040c0:	10c00005 	stb	r3,0(r2)
	while(1)
	{
		toggle++;
 80040c4:	e0bffc03 	ldbu	r2,-16(fp)
 80040c8:	10800044 	addi	r2,r2,1
 80040cc:	e0bffc05 	stb	r2,-16(fp)
		IO_write(HPI_ADDR,0x0500); //the start address
 80040d0:	01000084 	movi	r4,2
 80040d4:	01414004 	movi	r5,1280
 80040d8:	80035680 	call	8003568 <IO_write>
		//data phase IN-1
		IO_write(HPI_DATA,0x051c); //500
 80040dc:	0009883a 	mov	r4,zero
 80040e0:	01414704 	movi	r5,1308
 80040e4:	80035680 	call	8003568 <IO_write>

		IO_write(HPI_DATA,0x000f & data_size);//2 data length
 80040e8:	e0bfff03 	ldbu	r2,-4(fp)
 80040ec:	108003cc 	andi	r2,r2,15
 80040f0:	0009883a 	mov	r4,zero
 80040f4:	100b883a 	mov	r5,r2
 80040f8:	80035680 	call	8003568 <IO_write>

		IO_write(HPI_DATA,0x0291);//4 //endpoint 1
 80040fc:	0009883a 	mov	r4,zero
 8004100:	0140a444 	movi	r5,657
 8004104:	80035680 	call	8003568 <IO_write>
		if(toggle%2)
 8004108:	e0bffc03 	ldbu	r2,-16(fp)
 800410c:	1080004c 	andi	r2,r2,1
 8004110:	10803fcc 	andi	r2,r2,255
 8004114:	10000426 	beq	r2,zero,8004128 <main+0xb14>
		{
			IO_write(HPI_DATA,0x0001);//6 //data 1
 8004118:	0009883a 	mov	r4,zero
 800411c:	01400044 	movi	r5,1
 8004120:	80035680 	call	8003568 <IO_write>
 8004124:	00000306 	br	8004134 <main+0xb20>
		}
		else
		{
			IO_write(HPI_DATA,0x0041);//6 //data 1
 8004128:	0009883a 	mov	r4,zero
 800412c:	01401044 	movi	r5,65
 8004130:	80035680 	call	8003568 <IO_write>
		}
		IO_write(HPI_DATA,0x0013);//8
 8004134:	0009883a 	mov	r4,zero
 8004138:	014004c4 	movi	r5,19
 800413c:	80035680 	call	8003568 <IO_write>
		IO_write(HPI_DATA,0x0000);//a
 8004140:	0009883a 	mov	r4,zero
 8004144:	000b883a 	mov	r5,zero
 8004148:	80035680 	call	8003568 <IO_write>
		UsbWrite(HUSB_SIE1_pCurrentTDPtr,0x0500); //HUSB_SIE1_pCurrentTDPtr
 800414c:	01006c04 	movi	r4,432
 8004150:	01414004 	movi	r5,1280
 8004154:	80043b00 	call	80043b0 <UsbWrite>
		
		while (!(IO_read(HPI_STATUS) & HPI_STATUS_SIE1msg_FLAG) )  //read sie1 msg register
 8004158:	00002406 	br	80041ec <main+0xbd8>
		{
			IO_write(HPI_ADDR,0x0500); //the start address
 800415c:	01000084 	movi	r4,2
 8004160:	01414004 	movi	r5,1280
 8004164:	80035680 	call	8003568 <IO_write>
			//data phase IN-1
			IO_write(HPI_DATA,0x051c); //500
 8004168:	0009883a 	mov	r4,zero
 800416c:	01414704 	movi	r5,1308
 8004170:	80035680 	call	8003568 <IO_write>

			IO_write(HPI_DATA,0x000f & data_size);//2 data length
 8004174:	e0bfff03 	ldbu	r2,-4(fp)
 8004178:	108003cc 	andi	r2,r2,15
 800417c:	0009883a 	mov	r4,zero
 8004180:	100b883a 	mov	r5,r2
 8004184:	80035680 	call	8003568 <IO_write>

			IO_write(HPI_DATA,0x0291);//4 //endpoint 1
 8004188:	0009883a 	mov	r4,zero
 800418c:	0140a444 	movi	r5,657
 8004190:	80035680 	call	8003568 <IO_write>
			if(toggle%2)
 8004194:	e0bffc03 	ldbu	r2,-16(fp)
 8004198:	1080004c 	andi	r2,r2,1
 800419c:	10803fcc 	andi	r2,r2,255
 80041a0:	10000426 	beq	r2,zero,80041b4 <main+0xba0>
			{
				IO_write(HPI_DATA,0x0001);//6 //data 1
 80041a4:	0009883a 	mov	r4,zero
 80041a8:	01400044 	movi	r5,1
 80041ac:	80035680 	call	8003568 <IO_write>
 80041b0:	00000306 	br	80041c0 <main+0xbac>
			}
			else
			{
				IO_write(HPI_DATA,0x0041);//6 //data 1
 80041b4:	0009883a 	mov	r4,zero
 80041b8:	01401044 	movi	r5,65
 80041bc:	80035680 	call	8003568 <IO_write>
			}
			IO_write(HPI_DATA,0x0013);//8
 80041c0:	0009883a 	mov	r4,zero
 80041c4:	014004c4 	movi	r5,19
 80041c8:	80035680 	call	8003568 <IO_write>
			IO_write(HPI_DATA,0x0000);//
 80041cc:	0009883a 	mov	r4,zero
 80041d0:	000b883a 	mov	r5,zero
 80041d4:	80035680 	call	8003568 <IO_write>
			UsbWrite(HUSB_SIE1_pCurrentTDPtr,0x0500); //HUSB_SIE1_pCurrentTDPtr
 80041d8:	01006c04 	movi	r4,432
 80041dc:	01414004 	movi	r5,1280
 80041e0:	80043b00 	call	80043b0 <UsbWrite>
			usleep(10*1000);
 80041e4:	0109c404 	movi	r4,10000
 80041e8:	801d63c0 	call	801d63c <usleep>
		}
		IO_write(HPI_DATA,0x0013);//8
		IO_write(HPI_DATA,0x0000);//a
		UsbWrite(HUSB_SIE1_pCurrentTDPtr,0x0500); //HUSB_SIE1_pCurrentTDPtr
		
		while (!(IO_read(HPI_STATUS) & HPI_STATUS_SIE1msg_FLAG) )  //read sie1 msg register
 80041ec:	010000c4 	movi	r4,3
 80041f0:	80035c00 	call	80035c0 <IO_read>
 80041f4:	10bfffcc 	andi	r2,r2,65535
 80041f8:	1080040c 	andi	r2,r2,16
 80041fc:	103fd726 	beq	r2,zero,800415c <__alt_data_end+0xfc00415c>
			usleep(10*1000);
		}//end while



		usb_ctl_val = UsbWaitTDListDone();
 8004200:	800537c0 	call	800537c <UsbWaitTDListDone>
 8004204:	e0bffb0d 	sth	r2,-20(fp)

		// packet starts from 0x051c, reading third byte
		// TASK: Write the address to read from the memory for byte 3 of the report descriptor to HPI_ADDR.
		IO_write(HPI_ADDR,0x051e); //the start address
 8004208:	01000084 	movi	r4,2
 800420c:	01414784 	movi	r5,1310
 8004210:	80035680 	call	8003568 <IO_write>
		keycode = IO_read(HPI_DATA);
 8004214:	0009883a 	mov	r4,zero
 8004218:	80035c00 	call	80035c0 <IO_read>
 800421c:	10bfffcc 	andi	r2,r2,65535
 8004220:	e0bffd15 	stw	r2,-12(fp)
		if ((keycode & 0xff00) != 0)
 8004224:	e0bffd17 	ldw	r2,-12(fp)
 8004228:	10bfc00c 	andi	r2,r2,65280
 800422c:	10000426 	beq	r2,zero,8004240 <main+0xc2c>
			new_key = keycode >> 8;
 8004230:	e0bffd17 	ldw	r2,-12(fp)
 8004234:	1005d23a 	srai	r2,r2,8
 8004238:	e0bffbc5 	stb	r2,-17(fp)
 800423c:	00000206 	br	8004248 <main+0xc34>
		else
			new_key = (keycode & 0x00ff);
 8004240:	e0bffd17 	ldw	r2,-12(fp)
 8004244:	e0bffbc5 	stb	r2,-17(fp)
//		printf("\nfirst two keycode values are %04x\n",keycode);
		if (new_key != old_key && new_key != 0) {
 8004248:	e0fffbc7 	ldb	r3,-17(fp)
 800424c:	e0bffb87 	ldb	r2,-18(fp)
 8004250:	18800526 	beq	r3,r2,8004268 <main+0xc54>
 8004254:	e0bffbc7 	ldb	r2,-17(fp)
 8004258:	10000326 	beq	r2,zero,8004268 <main+0xc54>
			handle_keycode(new_key);
 800425c:	e0bffbc7 	ldb	r2,-17(fp)
 8004260:	1009883a 	mov	r4,r2
 8004264:	80001f80 	call	80001f8 <handle_keycode>
		}
		old_key = new_key;
 8004268:	e0bffbc3 	ldbu	r2,-17(fp)
 800426c:	e0bffb85 	stb	r2,-18(fp)
//		IOWR(KEYCODE_BASE, 0, keycode & 0xff);


		usleep(200);//usleep(5000);
 8004270:	01003204 	movi	r4,200
 8004274:	801d63c0 	call	801d63c <usleep>
		usb_ctl_val = UsbRead(ctl_reg);
 8004278:	d0a7040b 	ldhu	r2,-25584(gp)
 800427c:	10bfffcc 	andi	r2,r2,65535
 8004280:	1009883a 	mov	r4,r2
 8004284:	80044040 	call	8004404 <UsbRead>
 8004288:	e0bffb0d 	sth	r2,-20(fp)

		if(!(usb_ctl_val & no_device))
 800428c:	d0a7048b 	ldhu	r2,-25582(gp)
 8004290:	e0fffb0b 	ldhu	r3,-20(fp)
 8004294:	1884703a 	and	r2,r3,r2
 8004298:	10bfffcc 	andi	r2,r2,65535
 800429c:	1000201e 	bne	r2,zero,8004320 <main+0xd0c>
		{
			//USB hot plug routine
			for(hot_plug_count = 0 ; hot_plug_count < 7 ; hot_plug_count++)
 80042a0:	e03ffc45 	stb	zero,-15(fp)
 80042a4:	00001006 	br	80042e8 <main+0xcd4>
			{
				usleep(5*1000);
 80042a8:	0104e204 	movi	r4,5000
 80042ac:	801d63c0 	call	801d63c <usleep>
				usb_ctl_val = UsbRead(ctl_reg);
 80042b0:	d0a7040b 	ldhu	r2,-25584(gp)
 80042b4:	10bfffcc 	andi	r2,r2,65535
 80042b8:	1009883a 	mov	r4,r2
 80042bc:	80044040 	call	8004404 <UsbRead>
 80042c0:	e0bffb0d 	sth	r2,-20(fp)
				if(usb_ctl_val & no_device) break;
 80042c4:	d0a7048b 	ldhu	r2,-25582(gp)
 80042c8:	e0fffb0b 	ldhu	r3,-20(fp)
 80042cc:	1884703a 	and	r2,r3,r2
 80042d0:	10bfffcc 	andi	r2,r2,65535
 80042d4:	10000126 	beq	r2,zero,80042dc <main+0xcc8>
 80042d8:	00000606 	br	80042f4 <main+0xce0>
		usb_ctl_val = UsbRead(ctl_reg);

		if(!(usb_ctl_val & no_device))
		{
			//USB hot plug routine
			for(hot_plug_count = 0 ; hot_plug_count < 7 ; hot_plug_count++)
 80042dc:	e0bffc43 	ldbu	r2,-15(fp)
 80042e0:	10800044 	addi	r2,r2,1
 80042e4:	e0bffc45 	stb	r2,-15(fp)
 80042e8:	e0bffc43 	ldbu	r2,-15(fp)
 80042ec:	108001f0 	cmpltui	r2,r2,7
 80042f0:	103fed1e 	bne	r2,zero,80042a8 <__alt_data_end+0xfc0042a8>
			{
				usleep(5*1000);
				usb_ctl_val = UsbRead(ctl_reg);
				if(usb_ctl_val & no_device) break;
			}
			if(!(usb_ctl_val & no_device))
 80042f4:	d0a7048b 	ldhu	r2,-25582(gp)
 80042f8:	e0fffb0b 	ldhu	r3,-20(fp)
 80042fc:	1884703a 	and	r2,r3,r2
 8004300:	10bfffcc 	andi	r2,r2,65535
 8004304:	1000061e 	bne	r2,zero,8004320 <main+0xd0c>
			{
				printf("\n[INFO]: the keyboard has been removed!!! \n");
 8004308:	010200b4 	movhi	r4,2050
 800430c:	213ffe04 	addi	r4,r4,-8
 8004310:	800d0e00 	call	800d0e0 <puts>
				printf("[INFO]: please insert again!!! \n");
 8004314:	010200b4 	movhi	r4,2050
 8004318:	21000904 	addi	r4,r4,36
 800431c:	800d0e00 	call	800d0e0 <puts>
			}
		}

		while (!(usb_ctl_val & no_device))
 8004320:	00001d06 	br	8004398 <main+0xd84>
		{

			usb_ctl_val = UsbRead(ctl_reg);
 8004324:	d0a7040b 	ldhu	r2,-25584(gp)
 8004328:	10bfffcc 	andi	r2,r2,65535
 800432c:	1009883a 	mov	r4,r2
 8004330:	80044040 	call	8004404 <UsbRead>
 8004334:	e0bffb0d 	sth	r2,-20(fp)
			usleep(5*1000);
 8004338:	0104e204 	movi	r4,5000
 800433c:	801d63c0 	call	801d63c <usleep>
			usb_ctl_val = UsbRead(ctl_reg);
 8004340:	d0a7040b 	ldhu	r2,-25584(gp)
 8004344:	10bfffcc 	andi	r2,r2,65535
 8004348:	1009883a 	mov	r4,r2
 800434c:	80044040 	call	8004404 <UsbRead>
 8004350:	e0bffb0d 	sth	r2,-20(fp)
			usleep(5*1000);
 8004354:	0104e204 	movi	r4,5000
 8004358:	801d63c0 	call	801d63c <usleep>
			usb_ctl_val = UsbRead(ctl_reg);
 800435c:	d0a7040b 	ldhu	r2,-25584(gp)
 8004360:	10bfffcc 	andi	r2,r2,65535
 8004364:	1009883a 	mov	r4,r2
 8004368:	80044040 	call	8004404 <UsbRead>
 800436c:	e0bffb0d 	sth	r2,-20(fp)
			usleep(5*1000);
 8004370:	0104e204 	movi	r4,5000
 8004374:	801d63c0 	call	801d63c <usleep>

			if(usb_ctl_val & no_device)
 8004378:	d0a7048b 	ldhu	r2,-25582(gp)
 800437c:	e0fffb0b 	ldhu	r3,-20(fp)
 8004380:	1884703a 	and	r2,r3,r2
 8004384:	10bfffcc 	andi	r2,r2,65535
 8004388:	10000126 	beq	r2,zero,8004390 <main+0xd7c>
				goto USB_HOT_PLUG;
 800438c:	003caf06 	br	800364c <__alt_data_end+0xfc00364c>

			usleep(200);
 8004390:	01003204 	movi	r4,200
 8004394:	801d63c0 	call	801d63c <usleep>
				printf("\n[INFO]: the keyboard has been removed!!! \n");
				printf("[INFO]: please insert again!!! \n");
			}
		}

		while (!(usb_ctl_val & no_device))
 8004398:	d0a7048b 	ldhu	r2,-25582(gp)
 800439c:	e0fffb0b 	ldhu	r3,-20(fp)
 80043a0:	1884703a 	and	r2,r3,r2
 80043a4:	10bfffcc 	andi	r2,r2,65535
 80043a8:	103fde26 	beq	r2,zero,8004324 <__alt_data_end+0xfc004324>
				goto USB_HOT_PLUG;

			usleep(200);
		}

	}//end while
 80043ac:	003f4506 	br	80040c4 <__alt_data_end+0xfc0040c4>

080043b0 <UsbWrite>:
 * @return   None
 *
 * @note     None
 *
 ******************************************************************************/
void UsbWrite(alt_u16 Address, alt_u16 Data) {
 80043b0:	defffc04 	addi	sp,sp,-16
 80043b4:	dfc00315 	stw	ra,12(sp)
 80043b8:	df000215 	stw	fp,8(sp)
 80043bc:	df000204 	addi	fp,sp,8
 80043c0:	2007883a 	mov	r3,r4
 80043c4:	2805883a 	mov	r2,r5
 80043c8:	e0fffe0d 	sth	r3,-8(fp)
 80043cc:	e0bfff0d 	sth	r2,-4(fp)
	IO_write(HPI_ADDR, Address);
 80043d0:	e0bffe0b 	ldhu	r2,-8(fp)
 80043d4:	01000084 	movi	r4,2
 80043d8:	100b883a 	mov	r5,r2
 80043dc:	80035680 	call	8003568 <IO_write>
	IO_write(HPI_DATA, Data);
 80043e0:	e0bfff0b 	ldhu	r2,-4(fp)
 80043e4:	0009883a 	mov	r4,zero
 80043e8:	100b883a 	mov	r5,r2
 80043ec:	80035680 	call	8003568 <IO_write>
}
 80043f0:	e037883a 	mov	sp,fp
 80043f4:	dfc00117 	ldw	ra,4(sp)
 80043f8:	df000017 	ldw	fp,0(sp)
 80043fc:	dec00204 	addi	sp,sp,8
 8004400:	f800283a 	ret

08004404 <UsbRead>:
 * @return   The data read from the specified address
 *
 * @note     None
 *
 ******************************************************************************/
alt_u16 UsbRead(alt_u16 Address) {
 8004404:	defffc04 	addi	sp,sp,-16
 8004408:	dfc00315 	stw	ra,12(sp)
 800440c:	df000215 	stw	fp,8(sp)
 8004410:	df000204 	addi	fp,sp,8
 8004414:	2005883a 	mov	r2,r4
 8004418:	e0bfff0d 	sth	r2,-4(fp)
	IO_write(HPI_ADDR, Address);
 800441c:	e0bfff0b 	ldhu	r2,-4(fp)
 8004420:	01000084 	movi	r4,2
 8004424:	100b883a 	mov	r5,r2
 8004428:	80035680 	call	8003568 <IO_write>
	alt_u16 temp;
	temp = IO_read(HPI_DATA);
 800442c:	0009883a 	mov	r4,zero
 8004430:	80035c00 	call	80035c0 <IO_read>
 8004434:	e0bffe0d 	sth	r2,-8(fp)
	return temp;
 8004438:	e0bffe0b 	ldhu	r2,-8(fp)
}
 800443c:	e037883a 	mov	sp,fp
 8004440:	dfc00117 	ldw	ra,4(sp)
 8004444:	df000017 	ldw	fp,0(sp)
 8004448:	dec00204 	addi	sp,sp,8
 800444c:	f800283a 	ret

08004450 <UsbSoftReset>:
 *
 * @note     None
 *
 ******************************************************************************/
void UsbSoftReset()
{
 8004450:	defffe04 	addi	sp,sp,-8
 8004454:	dfc00115 	stw	ra,4(sp)
 8004458:	df000015 	stw	fp,0(sp)
 800445c:	d839883a 	mov	fp,sp
	//XIo_Out16(USB_MAILBOX, COMM_RESET);
	IO_write(HPI_MAILBOX,COMM_RESET); //COMM_JUMP2CODE
 8004460:	01000044 	movi	r4,1
 8004464:	017e9414 	movui	r5,64080
 8004468:	80035680 	call	8003568 <IO_write>
	usleep(100000);
 800446c:	010000b4 	movhi	r4,2
 8004470:	2121a804 	addi	r4,r4,-31072
 8004474:	801d63c0 	call	801d63c <usleep>
	printf("[USB INIT]:reset finished!\n");
 8004478:	010200b4 	movhi	r4,2050
 800447c:	21001104 	addi	r4,r4,68
 8004480:	800d0e00 	call	800d0e0 <puts>

	usleep(500000);
 8004484:	01000234 	movhi	r4,8
 8004488:	21284804 	addi	r4,r4,-24288
 800448c:	801d63c0 	call	801d63c <usleep>
	printf("[USB INIT]:Clear up the interrupt\r\n");
 8004490:	010200b4 	movhi	r4,2050
 8004494:	21001804 	addi	r4,r4,96
 8004498:	800d0e00 	call	800d0e0 <puts>
	IO_read(HPI_MAILBOX);
 800449c:	01000044 	movi	r4,1
 80044a0:	80035c00 	call	80035c0 <IO_read>
	IO_read(HPI_STATUS);
 80044a4:	010000c4 	movi	r4,3
 80044a8:	80035c00 	call	80035c0 <IO_read>

	// Had to add the write due to a bug in BIOS where they overwrite
	// the mailbox after initialization with garbage.  The read clears
	// any pending interrupts.
	UsbRead (HPI_SIE1_MSG_ADR);
 80044ac:	01005104 	movi	r4,324
 80044b0:	80044040 	call	8004404 <UsbRead>
	UsbWrite (HPI_SIE1_MSG_ADR, 0);
 80044b4:	01005104 	movi	r4,324
 80044b8:	000b883a 	mov	r5,zero
 80044bc:	80043b00 	call	80043b0 <UsbWrite>
	UsbRead (HPI_SIE2_MSG_ADR);
 80044c0:	01005204 	movi	r4,328
 80044c4:	80044040 	call	8004404 <UsbRead>
	UsbWrite (HPI_SIE2_MSG_ADR, 0);
 80044c8:	01005204 	movi	r4,328
 80044cc:	000b883a 	mov	r5,zero
 80044d0:	80043b00 	call	80043b0 <UsbWrite>


	UsbWrite (HOST1_STAT_REG, 0xFFFF);
 80044d4:	01302414 	movui	r4,49296
 80044d8:	017fffd4 	movui	r5,65535
 80044dc:	80043b00 	call	80043b0 <UsbWrite>
	UsbWrite (HOST2_STAT_REG, 0xFFFF);
 80044e0:	01302c14 	movui	r4,49328
 80044e4:	017fffd4 	movui	r5,65535
 80044e8:	80043b00 	call	80043b0 <UsbWrite>
}
 80044ec:	e037883a 	mov	sp,fp
 80044f0:	dfc00117 	ldw	ra,4(sp)
 80044f4:	df000017 	ldw	fp,0(sp)
 80044f8:	dec00204 	addi	sp,sp,8
 80044fc:	f800283a 	ret

08004500 <UsbSetAddress>:


void UsbSetAddress()
{
 8004500:	defffe04 	addi	sp,sp,-8
 8004504:	dfc00115 	stw	ra,4(sp)
 8004508:	df000015 	stw	fp,0(sp)
 800450c:	d839883a 	mov	fp,sp
	//the starting address
	IO_write(HPI_ADDR,0x0500); //the start address
 8004510:	01000084 	movi	r4,2
 8004514:	01414004 	movi	r5,1280
 8004518:	80035680 	call	8003568 <IO_write>
	// TD #1: 6 writes
	IO_write(HPI_DATA,0x050C);
 800451c:	0009883a 	mov	r4,zero
 8004520:	01414304 	movi	r5,1292
 8004524:	80035680 	call	8003568 <IO_write>
	IO_write(HPI_DATA,0x0008); //4 port number
 8004528:	0009883a 	mov	r4,zero
 800452c:	01400204 	movi	r5,8
 8004530:	80035680 	call	8003568 <IO_write>
	// TASK: Complete with 4 more IOWR functions
	IO_write(HPI_DATA,0x00D0);
 8004534:	0009883a 	mov	r4,zero
 8004538:	01403404 	movi	r5,208
 800453c:	80035680 	call	8003568 <IO_write>
	IO_write(HPI_DATA,0x0001);
 8004540:	0009883a 	mov	r4,zero
 8004544:	01400044 	movi	r5,1
 8004548:	80035680 	call	8003568 <IO_write>
	IO_write(HPI_DATA,0x0013);
 800454c:	0009883a 	mov	r4,zero
 8004550:	014004c4 	movi	r5,19
 8004554:	80035680 	call	8003568 <IO_write>
	IO_write(HPI_DATA,0x0514);
 8004558:	0009883a 	mov	r4,zero
 800455c:	01414504 	movi	r5,1300
 8004560:	80035680 	call	8003568 <IO_write>
	// TD #2: 4 writes
	// TASK: Complete with 4 IOWR functions
	IO_write(HPI_DATA,0x0500);
 8004564:	0009883a 	mov	r4,zero
 8004568:	01414004 	movi	r5,1280
 800456c:	80035680 	call	8003568 <IO_write>
	IO_write(HPI_DATA,0x0002);
 8004570:	0009883a 	mov	r4,zero
 8004574:	01400084 	movi	r5,2
 8004578:	80035680 	call	8003568 <IO_write>
	IO_write(HPI_DATA,0x0000);
 800457c:	0009883a 	mov	r4,zero
 8004580:	000b883a 	mov	r5,zero
 8004584:	80035680 	call	8003568 <IO_write>
	IO_write(HPI_DATA,0x0000);
 8004588:	0009883a 	mov	r4,zero
 800458c:	000b883a 	mov	r5,zero
 8004590:	80035680 	call	8003568 <IO_write>
	// TD #3: 6 writes
	// TASK: Complete with 6 IOWR functions
	IO_write(HPI_DATA,0x0000); //
 8004594:	0009883a 	mov	r4,zero
 8004598:	000b883a 	mov	r5,zero
 800459c:	80035680 	call	8003568 <IO_write>
	IO_write(HPI_DATA,0x0000);//
 80045a0:	0009883a 	mov	r4,zero
 80045a4:	000b883a 	mov	r5,zero
 80045a8:	80035680 	call	8003568 <IO_write>
	IO_write(HPI_DATA,0x0090);//
 80045ac:	0009883a 	mov	r4,zero
 80045b0:	01402404 	movi	r5,144
 80045b4:	80035680 	call	8003568 <IO_write>
	IO_write(HPI_DATA,0x0041);
 80045b8:	0009883a 	mov	r4,zero
 80045bc:	01401044 	movi	r5,65
 80045c0:	80035680 	call	8003568 <IO_write>
	IO_write(HPI_DATA,0x0013);
 80045c4:	0009883a 	mov	r4,zero
 80045c8:	014004c4 	movi	r5,19
 80045cc:	80035680 	call	8003568 <IO_write>
	IO_write(HPI_DATA,0x0000);
 80045d0:	0009883a 	mov	r4,zero
 80045d4:	000b883a 	mov	r5,zero
 80045d8:	80035680 	call	8003568 <IO_write>

	UsbWrite(HUSB_SIE1_pCurrentTDPtr,0x0500); //HUSB_SIE1_pCurrentTDPtr
 80045dc:	01006c04 	movi	r4,432
 80045e0:	01414004 	movi	r5,1280
 80045e4:	80043b00 	call	80043b0 <UsbWrite>
}
 80045e8:	e037883a 	mov	sp,fp
 80045ec:	dfc00117 	ldw	ra,4(sp)
 80045f0:	df000017 	ldw	fp,0(sp)
 80045f4:	dec00204 	addi	sp,sp,8
 80045f8:	f800283a 	ret

080045fc <UsbGetDeviceDesc1>:


void UsbGetDeviceDesc1()
{
 80045fc:	defffe04 	addi	sp,sp,-8
 8004600:	dfc00115 	stw	ra,4(sp)
 8004604:	df000015 	stw	fp,0(sp)
 8004608:	d839883a 	mov	fp,sp
	//the starting address
	IO_write(HPI_ADDR,0x0500); //the start address
 800460c:	01000084 	movi	r4,2
 8004610:	01414004 	movi	r5,1280
 8004614:	80035680 	call	8003568 <IO_write>
	IO_write(HPI_DATA,0x050C);
 8004618:	0009883a 	mov	r4,zero
 800461c:	01414304 	movi	r5,1292
 8004620:	80035680 	call	8003568 <IO_write>
	IO_write(HPI_DATA,0x0008); //4 port number
 8004624:	0009883a 	mov	r4,zero
 8004628:	01400204 	movi	r5,8
 800462c:	80035680 	call	8003568 <IO_write>
	IO_write(HPI_DATA,0x02D0); //device address
 8004630:	0009883a 	mov	r4,zero
 8004634:	0140b404 	movi	r5,720
 8004638:	80035680 	call	8003568 <IO_write>
	IO_write(HPI_DATA,0x0001);
 800463c:	0009883a 	mov	r4,zero
 8004640:	01400044 	movi	r5,1
 8004644:	80035680 	call	8003568 <IO_write>
	IO_write(HPI_DATA,0x0013);
 8004648:	0009883a 	mov	r4,zero
 800464c:	014004c4 	movi	r5,19
 8004650:	80035680 	call	8003568 <IO_write>
	IO_write(HPI_DATA,0x0514);
 8004654:	0009883a 	mov	r4,zero
 8004658:	01414504 	movi	r5,1300
 800465c:	80035680 	call	8003568 <IO_write>

	//td content 4 bytes
	IO_write(HPI_DATA,0x0680);//c
 8004660:	0009883a 	mov	r4,zero
 8004664:	0141a004 	movi	r5,1664
 8004668:	80035680 	call	8003568 <IO_write>
	IO_write(HPI_DATA,0x0100); //device 0x01
 800466c:	0009883a 	mov	r4,zero
 8004670:	01404004 	movi	r5,256
 8004674:	80035680 	call	8003568 <IO_write>
	IO_write(HPI_DATA,0x0000);
 8004678:	0009883a 	mov	r4,zero
 800467c:	000b883a 	mov	r5,zero
 8004680:	80035680 	call	8003568 <IO_write>
	IO_write(HPI_DATA,0x0008);
 8004684:	0009883a 	mov	r4,zero
 8004688:	01400204 	movi	r5,8
 800468c:	80035680 	call	8003568 <IO_write>

	//data phase IN
	IO_write(HPI_DATA,0x052C); //
 8004690:	0009883a 	mov	r4,zero
 8004694:	01414b04 	movi	r5,1324
 8004698:	80035680 	call	8003568 <IO_write>
	IO_write(HPI_DATA,0x0008);//
 800469c:	0009883a 	mov	r4,zero
 80046a0:	01400204 	movi	r5,8
 80046a4:	80035680 	call	8003568 <IO_write>
	IO_write(HPI_DATA,0x0290);//
 80046a8:	0009883a 	mov	r4,zero
 80046ac:	0140a404 	movi	r5,656
 80046b0:	80035680 	call	8003568 <IO_write>
	IO_write(HPI_DATA,0x0041);
 80046b4:	0009883a 	mov	r4,zero
 80046b8:	01401044 	movi	r5,65
 80046bc:	80035680 	call	8003568 <IO_write>
	IO_write(HPI_DATA,0x0013);
 80046c0:	0009883a 	mov	r4,zero
 80046c4:	014004c4 	movi	r5,19
 80046c8:	80035680 	call	8003568 <IO_write>
	IO_write(HPI_DATA,0x0520);
 80046cc:	0009883a 	mov	r4,zero
 80046d0:	01414804 	movi	r5,1312
 80046d4:	80035680 	call	8003568 <IO_write>

	//    //status phase
	IO_write(HPI_DATA,0x0000); //don't care
 80046d8:	0009883a 	mov	r4,zero
 80046dc:	000b883a 	mov	r5,zero
 80046e0:	80035680 	call	8003568 <IO_write>
	IO_write(HPI_DATA,0x0000);//port number
 80046e4:	0009883a 	mov	r4,zero
 80046e8:	000b883a 	mov	r5,zero
 80046ec:	80035680 	call	8003568 <IO_write>
	IO_write(HPI_DATA,0x0210);//device address
 80046f0:	0009883a 	mov	r4,zero
 80046f4:	01408404 	movi	r5,528
 80046f8:	80035680 	call	8003568 <IO_write>
	IO_write(HPI_DATA,0x0041);
 80046fc:	0009883a 	mov	r4,zero
 8004700:	01401044 	movi	r5,65
 8004704:	80035680 	call	8003568 <IO_write>
	IO_write(HPI_DATA,0x0013);
 8004708:	0009883a 	mov	r4,zero
 800470c:	014004c4 	movi	r5,19
 8004710:	80035680 	call	8003568 <IO_write>
	IO_write(HPI_DATA,0x0000);
 8004714:	0009883a 	mov	r4,zero
 8004718:	000b883a 	mov	r5,zero
 800471c:	80035680 	call	8003568 <IO_write>

	UsbWrite(HUSB_SIE1_pCurrentTDPtr,0x0500); //HUSB_SIE1_pCurrentTDPtr
 8004720:	01006c04 	movi	r4,432
 8004724:	01414004 	movi	r5,1280
 8004728:	80043b00 	call	80043b0 <UsbWrite>
}
 800472c:	e037883a 	mov	sp,fp
 8004730:	dfc00117 	ldw	ra,4(sp)
 8004734:	df000017 	ldw	fp,0(sp)
 8004738:	dec00204 	addi	sp,sp,8
 800473c:	f800283a 	ret

08004740 <UsbGetDeviceDesc2>:

void UsbGetDeviceDesc2()
{
 8004740:	defffe04 	addi	sp,sp,-8
 8004744:	dfc00115 	stw	ra,4(sp)
 8004748:	df000015 	stw	fp,0(sp)
 800474c:	d839883a 	mov	fp,sp
	//the starting address
	IO_write(HPI_ADDR,0x0500); //the start address
 8004750:	01000084 	movi	r4,2
 8004754:	01414004 	movi	r5,1280
 8004758:	80035680 	call	8003568 <IO_write>
	IO_write(HPI_DATA,0x050C);
 800475c:	0009883a 	mov	r4,zero
 8004760:	01414304 	movi	r5,1292
 8004764:	80035680 	call	8003568 <IO_write>
	IO_write(HPI_DATA,0x0008); //4 port number
 8004768:	0009883a 	mov	r4,zero
 800476c:	01400204 	movi	r5,8
 8004770:	80035680 	call	8003568 <IO_write>
	IO_write(HPI_DATA,0x02D0); //device address
 8004774:	0009883a 	mov	r4,zero
 8004778:	0140b404 	movi	r5,720
 800477c:	80035680 	call	8003568 <IO_write>
	IO_write(HPI_DATA,0x0001);
 8004780:	0009883a 	mov	r4,zero
 8004784:	01400044 	movi	r5,1
 8004788:	80035680 	call	8003568 <IO_write>
	IO_write(HPI_DATA,0x0013);
 800478c:	0009883a 	mov	r4,zero
 8004790:	014004c4 	movi	r5,19
 8004794:	80035680 	call	8003568 <IO_write>
	IO_write(HPI_DATA,0x0514);
 8004798:	0009883a 	mov	r4,zero
 800479c:	01414504 	movi	r5,1300
 80047a0:	80035680 	call	8003568 <IO_write>

	//td content 4 bytes
	IO_write(HPI_DATA,0x0680);//c
 80047a4:	0009883a 	mov	r4,zero
 80047a8:	0141a004 	movi	r5,1664
 80047ac:	80035680 	call	8003568 <IO_write>
	IO_write(HPI_DATA,0x0100);//e //device 0x01
 80047b0:	0009883a 	mov	r4,zero
 80047b4:	01404004 	movi	r5,256
 80047b8:	80035680 	call	8003568 <IO_write>
	IO_write(HPI_DATA,0x0000);//0
 80047bc:	0009883a 	mov	r4,zero
 80047c0:	000b883a 	mov	r5,zero
 80047c4:	80035680 	call	8003568 <IO_write>
	IO_write(HPI_DATA,0x0012);//2
 80047c8:	0009883a 	mov	r4,zero
 80047cc:	01400484 	movi	r5,18
 80047d0:	80035680 	call	8003568 <IO_write>

	//data phase IN-1
	IO_write(HPI_DATA,0x0544); //514
 80047d4:	0009883a 	mov	r4,zero
 80047d8:	01415104 	movi	r5,1348
 80047dc:	80035680 	call	8003568 <IO_write>
	IO_write(HPI_DATA,0x0008);//6
 80047e0:	0009883a 	mov	r4,zero
 80047e4:	01400204 	movi	r5,8
 80047e8:	80035680 	call	8003568 <IO_write>
	IO_write(HPI_DATA,0x0290);//8
 80047ec:	0009883a 	mov	r4,zero
 80047f0:	0140a404 	movi	r5,656
 80047f4:	80035680 	call	8003568 <IO_write>
	IO_write(HPI_DATA,0x0041);//a
 80047f8:	0009883a 	mov	r4,zero
 80047fc:	01401044 	movi	r5,65
 8004800:	80035680 	call	8003568 <IO_write>
	IO_write(HPI_DATA,0x0013);//c
 8004804:	0009883a 	mov	r4,zero
 8004808:	014004c4 	movi	r5,19
 800480c:	80035680 	call	8003568 <IO_write>
	IO_write(HPI_DATA,0x0520);//e
 8004810:	0009883a 	mov	r4,zero
 8004814:	01414804 	movi	r5,1312
 8004818:	80035680 	call	8003568 <IO_write>

	//data phase IN-2
	IO_write(HPI_DATA,0x054c); //520
 800481c:	0009883a 	mov	r4,zero
 8004820:	01415304 	movi	r5,1356
 8004824:	80035680 	call	8003568 <IO_write>
	IO_write(HPI_DATA,0x0008);//2
 8004828:	0009883a 	mov	r4,zero
 800482c:	01400204 	movi	r5,8
 8004830:	80035680 	call	8003568 <IO_write>
	IO_write(HPI_DATA,0x0290);//4
 8004834:	0009883a 	mov	r4,zero
 8004838:	0140a404 	movi	r5,656
 800483c:	80035680 	call	8003568 <IO_write>
	IO_write(HPI_DATA,0x0001);//6
 8004840:	0009883a 	mov	r4,zero
 8004844:	01400044 	movi	r5,1
 8004848:	80035680 	call	8003568 <IO_write>
	IO_write(HPI_DATA,0x0013);//8
 800484c:	0009883a 	mov	r4,zero
 8004850:	014004c4 	movi	r5,19
 8004854:	80035680 	call	8003568 <IO_write>
	IO_write(HPI_DATA,0x052c);//a
 8004858:	0009883a 	mov	r4,zero
 800485c:	01414b04 	movi	r5,1324
 8004860:	80035680 	call	8003568 <IO_write>

	//data phase IN-3
	IO_write(HPI_DATA,0x0554); //c
 8004864:	0009883a 	mov	r4,zero
 8004868:	01415504 	movi	r5,1364
 800486c:	80035680 	call	8003568 <IO_write>
	IO_write(HPI_DATA,0x0002);//e
 8004870:	0009883a 	mov	r4,zero
 8004874:	01400084 	movi	r5,2
 8004878:	80035680 	call	8003568 <IO_write>
	IO_write(HPI_DATA,0x0290);//530
 800487c:	0009883a 	mov	r4,zero
 8004880:	0140a404 	movi	r5,656
 8004884:	80035680 	call	8003568 <IO_write>
	IO_write(HPI_DATA,0x0041);//2
 8004888:	0009883a 	mov	r4,zero
 800488c:	01401044 	movi	r5,65
 8004890:	80035680 	call	8003568 <IO_write>
	IO_write(HPI_DATA,0x0013);//4
 8004894:	0009883a 	mov	r4,zero
 8004898:	014004c4 	movi	r5,19
 800489c:	80035680 	call	8003568 <IO_write>
	IO_write(HPI_DATA,0x0538);//6
 80048a0:	0009883a 	mov	r4,zero
 80048a4:	01414e04 	movi	r5,1336
 80048a8:	80035680 	call	8003568 <IO_write>

	//status phase
	IO_write(HPI_DATA,0x0000); //538
 80048ac:	0009883a 	mov	r4,zero
 80048b0:	000b883a 	mov	r5,zero
 80048b4:	80035680 	call	8003568 <IO_write>
	IO_write(HPI_DATA,0x0000);//a
 80048b8:	0009883a 	mov	r4,zero
 80048bc:	000b883a 	mov	r5,zero
 80048c0:	80035680 	call	8003568 <IO_write>
	IO_write(HPI_DATA,0x0210);//c
 80048c4:	0009883a 	mov	r4,zero
 80048c8:	01408404 	movi	r5,528
 80048cc:	80035680 	call	8003568 <IO_write>
	IO_write(HPI_DATA,0x0041);//e
 80048d0:	0009883a 	mov	r4,zero
 80048d4:	01401044 	movi	r5,65
 80048d8:	80035680 	call	8003568 <IO_write>
	IO_write(HPI_DATA,0x0013);//540
 80048dc:	0009883a 	mov	r4,zero
 80048e0:	014004c4 	movi	r5,19
 80048e4:	80035680 	call	8003568 <IO_write>
	IO_write(HPI_DATA,0x0000);//2
 80048e8:	0009883a 	mov	r4,zero
 80048ec:	000b883a 	mov	r5,zero
 80048f0:	80035680 	call	8003568 <IO_write>

	UsbWrite(HUSB_SIE1_pCurrentTDPtr,0x0500); //HUSB_SIE1_pCurrentTDPtr
 80048f4:	01006c04 	movi	r4,432
 80048f8:	01414004 	movi	r5,1280
 80048fc:	80043b00 	call	80043b0 <UsbWrite>
}
 8004900:	e037883a 	mov	sp,fp
 8004904:	dfc00117 	ldw	ra,4(sp)
 8004908:	df000017 	ldw	fp,0(sp)
 800490c:	dec00204 	addi	sp,sp,8
 8004910:	f800283a 	ret

08004914 <UsbGetConfigDesc1>:


void UsbGetConfigDesc1()
{
 8004914:	defffe04 	addi	sp,sp,-8
 8004918:	dfc00115 	stw	ra,4(sp)
 800491c:	df000015 	stw	fp,0(sp)
 8004920:	d839883a 	mov	fp,sp
	//the starting address
	IO_write(HPI_ADDR,0x0500); //the start address
 8004924:	01000084 	movi	r4,2
 8004928:	01414004 	movi	r5,1280
 800492c:	80035680 	call	8003568 <IO_write>
	IO_write(HPI_DATA,0x050C);
 8004930:	0009883a 	mov	r4,zero
 8004934:	01414304 	movi	r5,1292
 8004938:	80035680 	call	8003568 <IO_write>
	IO_write(HPI_DATA,0x0008); //4 port number
 800493c:	0009883a 	mov	r4,zero
 8004940:	01400204 	movi	r5,8
 8004944:	80035680 	call	8003568 <IO_write>
	IO_write(HPI_DATA,0x02D0); //device address
 8004948:	0009883a 	mov	r4,zero
 800494c:	0140b404 	movi	r5,720
 8004950:	80035680 	call	8003568 <IO_write>
	IO_write(HPI_DATA,0x0001);
 8004954:	0009883a 	mov	r4,zero
 8004958:	01400044 	movi	r5,1
 800495c:	80035680 	call	8003568 <IO_write>
	IO_write(HPI_DATA,0x0013);
 8004960:	0009883a 	mov	r4,zero
 8004964:	014004c4 	movi	r5,19
 8004968:	80035680 	call	8003568 <IO_write>
	IO_write(HPI_DATA,0x0514);
 800496c:	0009883a 	mov	r4,zero
 8004970:	01414504 	movi	r5,1300
 8004974:	80035680 	call	8003568 <IO_write>

	//td content 4 bytes
	IO_write(HPI_DATA,0x0680);//c
 8004978:	0009883a 	mov	r4,zero
 800497c:	0141a004 	movi	r5,1664
 8004980:	80035680 	call	8003568 <IO_write>
	IO_write(HPI_DATA,0x0200);//e //config 0x02
 8004984:	0009883a 	mov	r4,zero
 8004988:	01408004 	movi	r5,512
 800498c:	80035680 	call	8003568 <IO_write>
	IO_write(HPI_DATA,0x0000);//0
 8004990:	0009883a 	mov	r4,zero
 8004994:	000b883a 	mov	r5,zero
 8004998:	80035680 	call	8003568 <IO_write>
	IO_write(HPI_DATA,0x0009);//2
 800499c:	0009883a 	mov	r4,zero
 80049a0:	01400244 	movi	r5,9
 80049a4:	80035680 	call	8003568 <IO_write>

	//data phase IN-1
	IO_write(HPI_DATA,0x0544); //514
 80049a8:	0009883a 	mov	r4,zero
 80049ac:	01415104 	movi	r5,1348
 80049b0:	80035680 	call	8003568 <IO_write>
	IO_write(HPI_DATA,0x0008);//6
 80049b4:	0009883a 	mov	r4,zero
 80049b8:	01400204 	movi	r5,8
 80049bc:	80035680 	call	8003568 <IO_write>
	IO_write(HPI_DATA,0x0290);//8
 80049c0:	0009883a 	mov	r4,zero
 80049c4:	0140a404 	movi	r5,656
 80049c8:	80035680 	call	8003568 <IO_write>
	IO_write(HPI_DATA,0x0041);//a
 80049cc:	0009883a 	mov	r4,zero
 80049d0:	01401044 	movi	r5,65
 80049d4:	80035680 	call	8003568 <IO_write>
	IO_write(HPI_DATA,0x0013);//c
 80049d8:	0009883a 	mov	r4,zero
 80049dc:	014004c4 	movi	r5,19
 80049e0:	80035680 	call	8003568 <IO_write>
	IO_write(HPI_DATA,0x0520);//e
 80049e4:	0009883a 	mov	r4,zero
 80049e8:	01414804 	movi	r5,1312
 80049ec:	80035680 	call	8003568 <IO_write>

	//data phase IN-2
	IO_write(HPI_DATA,0x054c); //520
 80049f0:	0009883a 	mov	r4,zero
 80049f4:	01415304 	movi	r5,1356
 80049f8:	80035680 	call	8003568 <IO_write>
	IO_write(HPI_DATA,0x0001);//2
 80049fc:	0009883a 	mov	r4,zero
 8004a00:	01400044 	movi	r5,1
 8004a04:	80035680 	call	8003568 <IO_write>
	IO_write(HPI_DATA,0x0290);//4
 8004a08:	0009883a 	mov	r4,zero
 8004a0c:	0140a404 	movi	r5,656
 8004a10:	80035680 	call	8003568 <IO_write>
	IO_write(HPI_DATA,0x0001);//6 //data0
 8004a14:	0009883a 	mov	r4,zero
 8004a18:	01400044 	movi	r5,1
 8004a1c:	80035680 	call	8003568 <IO_write>
	IO_write(HPI_DATA,0x0013);//8
 8004a20:	0009883a 	mov	r4,zero
 8004a24:	014004c4 	movi	r5,19
 8004a28:	80035680 	call	8003568 <IO_write>
	IO_write(HPI_DATA,0x052c);//a
 8004a2c:	0009883a 	mov	r4,zero
 8004a30:	01414b04 	movi	r5,1324
 8004a34:	80035680 	call	8003568 <IO_write>

	//status phase
	IO_write(HPI_DATA,0x0000); //52c
 8004a38:	0009883a 	mov	r4,zero
 8004a3c:	000b883a 	mov	r5,zero
 8004a40:	80035680 	call	8003568 <IO_write>
	IO_write(HPI_DATA,0x0000);//e
 8004a44:	0009883a 	mov	r4,zero
 8004a48:	000b883a 	mov	r5,zero
 8004a4c:	80035680 	call	8003568 <IO_write>
	IO_write(HPI_DATA,0x0210);//530
 8004a50:	0009883a 	mov	r4,zero
 8004a54:	01408404 	movi	r5,528
 8004a58:	80035680 	call	8003568 <IO_write>
	IO_write(HPI_DATA,0x0041);//2
 8004a5c:	0009883a 	mov	r4,zero
 8004a60:	01401044 	movi	r5,65
 8004a64:	80035680 	call	8003568 <IO_write>
	IO_write(HPI_DATA,0x0013);//4
 8004a68:	0009883a 	mov	r4,zero
 8004a6c:	014004c4 	movi	r5,19
 8004a70:	80035680 	call	8003568 <IO_write>
	IO_write(HPI_DATA,0x0000);//6
 8004a74:	0009883a 	mov	r4,zero
 8004a78:	000b883a 	mov	r5,zero
 8004a7c:	80035680 	call	8003568 <IO_write>

	UsbWrite(HUSB_SIE1_pCurrentTDPtr,0x0500); //HUSB_SIE1_pCurrentTDPtr
 8004a80:	01006c04 	movi	r4,432
 8004a84:	01414004 	movi	r5,1280
 8004a88:	80043b00 	call	80043b0 <UsbWrite>
}
 8004a8c:	e037883a 	mov	sp,fp
 8004a90:	dfc00117 	ldw	ra,4(sp)
 8004a94:	df000017 	ldw	fp,0(sp)
 8004a98:	dec00204 	addi	sp,sp,8
 8004a9c:	f800283a 	ret

08004aa0 <UsbGetConfigDesc2>:


void UsbGetConfigDesc2()
{
 8004aa0:	defffe04 	addi	sp,sp,-8
 8004aa4:	dfc00115 	stw	ra,4(sp)
 8004aa8:	df000015 	stw	fp,0(sp)
 8004aac:	d839883a 	mov	fp,sp
	//the starting address
	IO_write(HPI_ADDR,0x0500); //the start address
 8004ab0:	01000084 	movi	r4,2
 8004ab4:	01414004 	movi	r5,1280
 8004ab8:	80035680 	call	8003568 <IO_write>
	IO_write(HPI_DATA,0x050C);
 8004abc:	0009883a 	mov	r4,zero
 8004ac0:	01414304 	movi	r5,1292
 8004ac4:	80035680 	call	8003568 <IO_write>
	IO_write(HPI_DATA,0x0008); //4 port number
 8004ac8:	0009883a 	mov	r4,zero
 8004acc:	01400204 	movi	r5,8
 8004ad0:	80035680 	call	8003568 <IO_write>
	IO_write(HPI_DATA,0x02D0); //device address
 8004ad4:	0009883a 	mov	r4,zero
 8004ad8:	0140b404 	movi	r5,720
 8004adc:	80035680 	call	8003568 <IO_write>
	IO_write(HPI_DATA,0x0001);
 8004ae0:	0009883a 	mov	r4,zero
 8004ae4:	01400044 	movi	r5,1
 8004ae8:	80035680 	call	8003568 <IO_write>
	IO_write(HPI_DATA,0x0013);
 8004aec:	0009883a 	mov	r4,zero
 8004af0:	014004c4 	movi	r5,19
 8004af4:	80035680 	call	8003568 <IO_write>
	IO_write(HPI_DATA,0x0514);
 8004af8:	0009883a 	mov	r4,zero
 8004afc:	01414504 	movi	r5,1300
 8004b00:	80035680 	call	8003568 <IO_write>

	//td content 4 bytes
	IO_write(HPI_DATA,0x0680);//c
 8004b04:	0009883a 	mov	r4,zero
 8004b08:	0141a004 	movi	r5,1664
 8004b0c:	80035680 	call	8003568 <IO_write>
	IO_write(HPI_DATA,0x0200);//e //config 0x02
 8004b10:	0009883a 	mov	r4,zero
 8004b14:	01408004 	movi	r5,512
 8004b18:	80035680 	call	8003568 <IO_write>
	IO_write(HPI_DATA,0x0000);//0
 8004b1c:	0009883a 	mov	r4,zero
 8004b20:	000b883a 	mov	r5,zero
 8004b24:	80035680 	call	8003568 <IO_write>
	IO_write(HPI_DATA,0x00FF);//2
 8004b28:	0009883a 	mov	r4,zero
 8004b2c:	01403fc4 	movi	r5,255
 8004b30:	80035680 	call	8003568 <IO_write>

	//data phase IN-1
	IO_write(HPI_DATA,0x055c); //514
 8004b34:	0009883a 	mov	r4,zero
 8004b38:	01415704 	movi	r5,1372
 8004b3c:	80035680 	call	8003568 <IO_write>
	IO_write(HPI_DATA,0x0008);//6
 8004b40:	0009883a 	mov	r4,zero
 8004b44:	01400204 	movi	r5,8
 8004b48:	80035680 	call	8003568 <IO_write>
	IO_write(HPI_DATA,0x0290);//8
 8004b4c:	0009883a 	mov	r4,zero
 8004b50:	0140a404 	movi	r5,656
 8004b54:	80035680 	call	8003568 <IO_write>
	IO_write(HPI_DATA,0x0041);//a
 8004b58:	0009883a 	mov	r4,zero
 8004b5c:	01401044 	movi	r5,65
 8004b60:	80035680 	call	8003568 <IO_write>
	IO_write(HPI_DATA,0x0013);//c
 8004b64:	0009883a 	mov	r4,zero
 8004b68:	014004c4 	movi	r5,19
 8004b6c:	80035680 	call	8003568 <IO_write>
	IO_write(HPI_DATA,0x0520);//e
 8004b70:	0009883a 	mov	r4,zero
 8004b74:	01414804 	movi	r5,1312
 8004b78:	80035680 	call	8003568 <IO_write>

	//data phase IN-2
	IO_write(HPI_DATA,0x0564); //520
 8004b7c:	0009883a 	mov	r4,zero
 8004b80:	01415904 	movi	r5,1380
 8004b84:	80035680 	call	8003568 <IO_write>
	IO_write(HPI_DATA,0x0008);//2
 8004b88:	0009883a 	mov	r4,zero
 8004b8c:	01400204 	movi	r5,8
 8004b90:	80035680 	call	8003568 <IO_write>
	IO_write(HPI_DATA,0x0290);//4
 8004b94:	0009883a 	mov	r4,zero
 8004b98:	0140a404 	movi	r5,656
 8004b9c:	80035680 	call	8003568 <IO_write>
	IO_write(HPI_DATA,0x0001);//6 //data0
 8004ba0:	0009883a 	mov	r4,zero
 8004ba4:	01400044 	movi	r5,1
 8004ba8:	80035680 	call	8003568 <IO_write>
	IO_write(HPI_DATA,0x0013);//8
 8004bac:	0009883a 	mov	r4,zero
 8004bb0:	014004c4 	movi	r5,19
 8004bb4:	80035680 	call	8003568 <IO_write>
	IO_write(HPI_DATA,0x052c);//a
 8004bb8:	0009883a 	mov	r4,zero
 8004bbc:	01414b04 	movi	r5,1324
 8004bc0:	80035680 	call	8003568 <IO_write>

	//data phase IN-3
	IO_write(HPI_DATA,0x056c); //52c
 8004bc4:	0009883a 	mov	r4,zero
 8004bc8:	01415b04 	movi	r5,1388
 8004bcc:	80035680 	call	8003568 <IO_write>
	IO_write(HPI_DATA,0x0008);//e
 8004bd0:	0009883a 	mov	r4,zero
 8004bd4:	01400204 	movi	r5,8
 8004bd8:	80035680 	call	8003568 <IO_write>
	IO_write(HPI_DATA,0x0290);//530
 8004bdc:	0009883a 	mov	r4,zero
 8004be0:	0140a404 	movi	r5,656
 8004be4:	80035680 	call	8003568 <IO_write>
	IO_write(HPI_DATA,0x0041);//2
 8004be8:	0009883a 	mov	r4,zero
 8004bec:	01401044 	movi	r5,65
 8004bf0:	80035680 	call	8003568 <IO_write>
	IO_write(HPI_DATA,0x0013);//4
 8004bf4:	0009883a 	mov	r4,zero
 8004bf8:	014004c4 	movi	r5,19
 8004bfc:	80035680 	call	8003568 <IO_write>
	IO_write(HPI_DATA,0x0538);//6
 8004c00:	0009883a 	mov	r4,zero
 8004c04:	01414e04 	movi	r5,1336
 8004c08:	80035680 	call	8003568 <IO_write>

	//data phase IN-4
	IO_write(HPI_DATA,0x0574); //538
 8004c0c:	0009883a 	mov	r4,zero
 8004c10:	01415d04 	movi	r5,1396
 8004c14:	80035680 	call	8003568 <IO_write>
	IO_write(HPI_DATA,0x0008);//a
 8004c18:	0009883a 	mov	r4,zero
 8004c1c:	01400204 	movi	r5,8
 8004c20:	80035680 	call	8003568 <IO_write>
	IO_write(HPI_DATA,0x0290);//c
 8004c24:	0009883a 	mov	r4,zero
 8004c28:	0140a404 	movi	r5,656
 8004c2c:	80035680 	call	8003568 <IO_write>
	IO_write(HPI_DATA,0x0001);//e //data0
 8004c30:	0009883a 	mov	r4,zero
 8004c34:	01400044 	movi	r5,1
 8004c38:	80035680 	call	8003568 <IO_write>
	IO_write(HPI_DATA,0x0013);//540
 8004c3c:	0009883a 	mov	r4,zero
 8004c40:	014004c4 	movi	r5,19
 8004c44:	80035680 	call	8003568 <IO_write>
	IO_write(HPI_DATA,0x0544);//2
 8004c48:	0009883a 	mov	r4,zero
 8004c4c:	01415104 	movi	r5,1348
 8004c50:	80035680 	call	8003568 <IO_write>

	//data phase IN-5
	IO_write(HPI_DATA,0x057c); //544
 8004c54:	0009883a 	mov	r4,zero
 8004c58:	01415f04 	movi	r5,1404
 8004c5c:	80035680 	call	8003568 <IO_write>
	IO_write(HPI_DATA,0x0002);//6
 8004c60:	0009883a 	mov	r4,zero
 8004c64:	01400084 	movi	r5,2
 8004c68:	80035680 	call	8003568 <IO_write>
	IO_write(HPI_DATA,0x0290);//8
 8004c6c:	0009883a 	mov	r4,zero
 8004c70:	0140a404 	movi	r5,656
 8004c74:	80035680 	call	8003568 <IO_write>
	IO_write(HPI_DATA,0x0041);//a //data1
 8004c78:	0009883a 	mov	r4,zero
 8004c7c:	01401044 	movi	r5,65
 8004c80:	80035680 	call	8003568 <IO_write>
	IO_write(HPI_DATA,0x0013);//c
 8004c84:	0009883a 	mov	r4,zero
 8004c88:	014004c4 	movi	r5,19
 8004c8c:	80035680 	call	8003568 <IO_write>
	IO_write(HPI_DATA,0x0550);//e
 8004c90:	0009883a 	mov	r4,zero
 8004c94:	01415404 	movi	r5,1360
 8004c98:	80035680 	call	8003568 <IO_write>

	//status phase
	IO_write(HPI_DATA,0x0000); //550
 8004c9c:	0009883a 	mov	r4,zero
 8004ca0:	000b883a 	mov	r5,zero
 8004ca4:	80035680 	call	8003568 <IO_write>
	IO_write(HPI_DATA,0x0000);//2
 8004ca8:	0009883a 	mov	r4,zero
 8004cac:	000b883a 	mov	r5,zero
 8004cb0:	80035680 	call	8003568 <IO_write>
	IO_write(HPI_DATA,0x0210);//4
 8004cb4:	0009883a 	mov	r4,zero
 8004cb8:	01408404 	movi	r5,528
 8004cbc:	80035680 	call	8003568 <IO_write>
	IO_write(HPI_DATA,0x0041);//6
 8004cc0:	0009883a 	mov	r4,zero
 8004cc4:	01401044 	movi	r5,65
 8004cc8:	80035680 	call	8003568 <IO_write>
	IO_write(HPI_DATA,0x0013);//8
 8004ccc:	0009883a 	mov	r4,zero
 8004cd0:	014004c4 	movi	r5,19
 8004cd4:	80035680 	call	8003568 <IO_write>
	IO_write(HPI_DATA,0x0000);//a
 8004cd8:	0009883a 	mov	r4,zero
 8004cdc:	000b883a 	mov	r5,zero
 8004ce0:	80035680 	call	8003568 <IO_write>

	UsbWrite(HUSB_SIE1_pCurrentTDPtr,0x0500); //HUSB_SIE1_pCurrentTDPtr
